(lp0
(lp1
F-31.5
aF5.5
aa(lp2
F-31.5
aF-5.5
aa(lp3
F-28.5
aF-5.5
aa(lp4
F-25.5
aF5.5
aa(lp5
F-25.5
aF-5.5
aa(lp6
F-22.5
aF-5.5
aa(lp7
F-19.5
aF-5.5
aa(lp8
F-16.5
aF21.5
aa(lp9
F-16.5
aF10.5
aa(lp10
F-16.5
aF5.5
aa(lp11
F-13.5
aF5.5
aa(lp12
F-13.5
aF-5.5
aa(lp13
F-7.5
aF21.5
aa(lp14
F-7.5
aF10.5
aa(lp15
F-7.5
aF5.5
aa(lp16
F-4.5
aF21.5
aa(lp17
F-4.5
aF10.5
aa(lp18
F-1.5
aF-5.5
aa(lp19
F1.5
aF10.5
aa(lp20
F1.5
aF-5.5
aa(lp21
F4.5
aF10.5
aa(lp22
F4.5
aF5.5
aa(lp23
F4.5
aF-5.5
aa(lp24
F7.5
aF-5.5
aa(lp25
F10.5
aF21.5
aa(lp26
F10.5
aF10.5
aa(lp27
F10.5
aF5.5
aa(lp28
F13.5
aF10.5
aa(lp29
F13.5
aF5.5
aa(lp30
F16.5
aF21.5
aa(lp31
F19.5
aF21.5
aa(lp32
F19.5
aF10.5
aa(lp33
F19.5
aF-5.5
aa(lp34
F22.5
aF-5.5
aa(lp35
F25.5
aF21.5
aa(lp36
F28.5
aF21.5
aa(lp37
F28.5
aF10.5
aa(lp38
F28.5
aF-5.5
aa(lp39
F31.5
aF21.5
aa(lp40
F31.5
aF10.5
aa.