(lp0
(lp1
I0
aF0.1
aF0.2
aF0.30000000000000004
aF0.4
aF0.5
aF0.6
aF0.7
aF0.7999999999999999
aF0.8999999999999999
aF0.9999999999999999
aF1.0999999999999999
aF1.2
aF1.3
aF1.4000000000000001
aF1.5000000000000002
aF1.6000000000000003
aF1.7000000000000004
aF1.8000000000000005
aF1.9000000000000006
aF2.0000000000000004
aF2.1000000000000005
aF2.2000000000000006
aF2.3000000000000007
aF2.400000000000001
aF2.500000000000001
aF2.600000000000001
aF2.700000000000001
aF2.800000000000001
aF2.9000000000000012
aF3.0000000000000013
aF3.1000000000000014
aF3.2000000000000015
aF3.3000000000000016
aF3.4000000000000017
aF3.5000000000000018
aF3.600000000000002
aF3.700000000000002
aF3.800000000000002
aF3.900000000000002
aF4.000000000000002
aF4.100000000000001
aF4.200000000000001
aF4.300000000000001
aF4.4
aF4.5
aF4.6
aF4.699999999999999
aF4.799999999999999
aF4.899999999999999
aF4.999999999999998
aF5.099999999999998
aF5.1999999999999975
aF5.299999999999997
aF5.399999999999997
aF5.4999999999999964
aF5.599999999999996
aF5.699999999999996
aF5.799999999999995
aF5.899999999999995
aF5.999999999999995
aF6.099999999999994
aF6.199999999999994
aF6.299999999999994
aF6.399999999999993
aF6.499999999999993
aF6.5999999999999925
aF6.699999999999992
aF6.799999999999992
aF6.8999999999999915
aF6.999999999999991
aF7.099999999999991
aF7.19999999999999
aF7.29999999999999
aF7.39999999999999
aF7.499999999999989
aF7.599999999999989
aF7.699999999999989
aF7.799999999999988
aF7.899999999999988
aF7.999999999999988
aF8.099999999999987
aF8.199999999999987
aF8.299999999999986
aF8.399999999999986
aF8.499999999999986
aF8.599999999999985
aF8.699999999999985
aF8.799999999999985
aF8.899999999999984
aF8.999999999999984
aF9.099999999999984
aF9.199999999999983
aF9.299999999999983
aF9.399999999999983
aF9.499999999999982
aF9.599999999999982
aF9.699999999999982
aF9.799999999999981
aF9.89999999999998
aF9.99999999999998
aF10.09999999999998
aF10.19999999999998
aF10.29999999999998
aF10.399999999999979
aF10.499999999999979
aF10.599999999999978
aF10.699999999999978
aF10.799999999999978
aF10.899999999999977
aF10.999999999999977
aF11.099999999999977
aF11.199999999999976
aF11.299999999999976
aF11.399999999999975
aF11.499999999999975
aF11.599999999999975
aF11.699999999999974
aF11.799999999999974
aF11.899999999999974
aF11.999999999999973
aF12.099999999999973
aF12.199999999999973
aF12.299999999999972
aF12.399999999999972
aF12.499999999999972
aF12.599999999999971
aF12.69999999999997
aF12.79999999999997
aF12.89999999999997
aF12.99999999999997
aF13.09999999999997
aF13.199999999999969
aF13.299999999999969
aF13.399999999999968
aF13.499999999999968
aF13.599999999999968
aF13.699999999999967
aF13.799999999999967
aF13.899999999999967
aF13.999999999999966
aF14.099999999999966
aF14.199999999999966
aF14.299999999999965
aF14.399999999999965
aF14.499999999999964
aF14.599999999999964
aF14.699999999999964
aF14.799999999999963
aF14.899999999999963
aF14.999999999999963
aF15.099999999999962
aF15.199999999999962
aF15.299999999999962
aF15.399999999999961
aF15.499999999999961
aF15.59999999999996
aF15.69999999999996
aF15.79999999999996
aF15.89999999999996
aF15.99999999999996
aF16.09999999999996
aF16.19999999999996
aF16.29999999999996
aF16.399999999999963
aF16.499999999999964
aF16.599999999999966
aF16.699999999999967
aF16.79999999999997
aF16.89999999999997
aF16.99999999999997
aF17.099999999999973
aF17.199999999999974
aF17.299999999999976
aF17.399999999999977
aF17.49999999999998
aF17.59999999999998
aF17.69999999999998
aF17.799999999999983
aF17.899999999999984
aF17.999999999999986
aF18.099999999999987
aF18.19999999999999
aF18.29999999999999
aF18.39999999999999
aF18.499999999999993
aF18.599999999999994
aF18.699999999999996
aF18.799999999999997
aF18.9
aF19.0
aF19.1
aF19.200000000000003
aF19.300000000000004
aF19.400000000000006
aF19.500000000000007
aF19.60000000000001
aF19.70000000000001
aF19.80000000000001
aF19.900000000000013
aF20.000000000000014
aF20.100000000000016
aF20.200000000000017
aF20.30000000000002
aF20.40000000000002
aF20.50000000000002
aF20.600000000000023
aF20.700000000000024
aF20.800000000000026
aF20.900000000000027
aF21.00000000000003
aF21.10000000000003
aF21.20000000000003
aF21.300000000000033
aF21.400000000000034
aF21.500000000000036
aF21.600000000000037
aF21.70000000000004
aF21.80000000000004
aF21.90000000000004
aF22.000000000000043
aF22.100000000000044
aF22.200000000000045
aF22.300000000000047
aF22.40000000000005
aF22.50000000000005
aF22.60000000000005
aF22.700000000000053
aF22.800000000000054
aF22.900000000000055
aF23.000000000000057
aF23.10000000000006
aF23.20000000000006
aF23.30000000000006
aF23.400000000000063
aF23.500000000000064
aF23.600000000000065
aF23.700000000000067
aF23.800000000000068
aF23.90000000000007
aF24.00000000000007
aF24.100000000000072
aF24.200000000000074
aF24.300000000000075
aF24.400000000000077
aF24.500000000000078
aF24.60000000000008
aF24.70000000000008
aF24.800000000000082
aF24.900000000000084
aF25.000000000000085
aF25.100000000000087
aF25.200000000000088
aF25.30000000000009
aF25.40000000000009
aF25.500000000000092
aF25.600000000000094
aF25.700000000000095
aF25.800000000000097
aF25.900000000000098
aF26.0000000000001
aF26.1000000000001
aF26.200000000000102
aF26.300000000000104
aF26.400000000000105
aF26.500000000000107
aF26.600000000000108
aF26.70000000000011
aF26.80000000000011
aF26.900000000000112
aF27.000000000000114
aF27.100000000000115
aF27.200000000000117
aF27.300000000000118
aF27.40000000000012
aF27.50000000000012
aF27.600000000000122
aF27.700000000000124
aF27.800000000000125
aF27.900000000000126
aF28.000000000000128
aF28.10000000000013
aF28.20000000000013
aF28.300000000000132
aF28.400000000000134
aF28.500000000000135
aF28.600000000000136
aF28.700000000000138
aF28.80000000000014
aF28.90000000000014
aF29.000000000000142
aF29.100000000000144
aF29.200000000000145
aF29.300000000000146
aF29.400000000000148
aF29.50000000000015
aF29.60000000000015
aF29.700000000000152
aF29.800000000000153
aF29.900000000000155
aF30.000000000000156
aF30.100000000000158
aF30.20000000000016
aF30.30000000000016
aF30.400000000000162
aF30.500000000000163
aF30.600000000000165
aF30.700000000000166
aF30.800000000000168
aF30.90000000000017
aF31.00000000000017
aF31.100000000000172
aF31.200000000000173
aF31.300000000000175
aF31.400000000000176
aF31.500000000000178
aF31.60000000000018
aF31.70000000000018
aF31.800000000000182
aF31.900000000000183
aF32.000000000000185
aF32.100000000000186
aF32.20000000000019
aF32.30000000000019
aF32.40000000000019
aF32.50000000000019
aF32.60000000000019
aF32.700000000000195
aF32.800000000000196
aF32.9000000000002
aF33.0000000000002
aF33.1000000000002
aF33.2000000000002
aF33.3000000000002
aF33.400000000000205
aF33.500000000000206
aF33.60000000000021
aF33.70000000000021
aF33.80000000000021
aF33.90000000000021
aF34.00000000000021
aF34.100000000000215
aF34.200000000000216
aF34.30000000000022
aF34.40000000000022
aF34.50000000000022
aF34.60000000000022
aF34.70000000000022
aF34.800000000000225
aF34.900000000000226
aF35.00000000000023
aF35.10000000000023
aF35.20000000000023
aF35.30000000000023
aF35.40000000000023
aF35.500000000000234
aF35.600000000000236
aF35.70000000000024
aF35.80000000000024
aF35.90000000000024
aF36.00000000000024
aF36.10000000000024
aF36.200000000000244
aF36.300000000000246
aF36.40000000000025
aF36.50000000000025
aF36.60000000000025
aF36.70000000000025
aF36.80000000000025
aF36.900000000000254
aF37.000000000000256
aF37.10000000000026
aF37.20000000000026
aF37.30000000000026
aF37.40000000000026
aF37.50000000000026
aF37.600000000000264
aF37.700000000000266
aF37.80000000000027
aF37.90000000000027
aF38.00000000000027
aF38.10000000000027
aF38.20000000000027
aF38.300000000000274
aF38.400000000000276
aF38.50000000000028
aF38.60000000000028
aF38.70000000000028
aF38.80000000000028
aF38.90000000000028
aF39.000000000000284
aF39.100000000000286
aF39.20000000000029
aF39.30000000000029
aF39.40000000000029
aF39.50000000000029
aF39.60000000000029
aF39.700000000000294
aF39.800000000000296
aF39.9000000000003
aF40.0000000000003
aF40.1000000000003
aF40.2000000000003
aF40.3000000000003
aF40.400000000000304
aF40.500000000000306
aF40.60000000000031
aF40.70000000000031
aF40.80000000000031
aF40.90000000000031
aF41.00000000000031
aF41.100000000000314
aF41.200000000000315
aF41.30000000000032
aF41.40000000000032
aF41.50000000000032
aF41.60000000000032
aF41.70000000000032
aF41.800000000000324
aF41.900000000000325
aF42.00000000000033
aF42.10000000000033
aF42.20000000000033
aF42.30000000000033
aF42.40000000000033
aF42.500000000000334
aF42.600000000000335
aF42.70000000000034
aF42.80000000000034
aF42.90000000000034
aF43.00000000000034
aF43.10000000000034
aF43.200000000000344
aF43.300000000000345
aF43.40000000000035
aF43.50000000000035
aF43.60000000000035
aF43.70000000000035
aF43.80000000000035
aF43.900000000000354
aF44.000000000000355
aF44.10000000000036
aF44.20000000000036
aF44.30000000000036
aF44.40000000000036
aF44.50000000000036
aF44.600000000000364
aF44.700000000000365
aF44.80000000000037
aF44.90000000000037
aF45.00000000000037
aF45.10000000000037
aF45.20000000000037
aF45.300000000000374
aF45.400000000000375
aF45.50000000000038
aF45.60000000000038
aF45.70000000000038
aF45.80000000000038
aF45.90000000000038
aF46.000000000000384
aF46.100000000000385
aF46.20000000000039
aF46.30000000000039
aF46.40000000000039
aF46.50000000000039
aF46.60000000000039
aF46.700000000000394
aF46.800000000000395
aF46.9000000000004
aF47.0000000000004
aF47.1000000000004
aF47.2000000000004
aF47.3000000000004
aF47.400000000000404
aF47.500000000000405
aF47.600000000000406
aF47.70000000000041
aF47.80000000000041
aF47.90000000000041
aF48.00000000000041
aF48.10000000000041
aF48.200000000000415
aF48.300000000000416
aF48.40000000000042
aF48.50000000000042
aF48.60000000000042
aF48.70000000000042
aF48.80000000000042
aF48.900000000000425
aF49.000000000000426
aF49.10000000000043
aF49.20000000000043
aF49.30000000000043
aF49.40000000000043
aF49.50000000000043
aF49.600000000000435
aF49.700000000000436
aF49.80000000000044
aF49.90000000000044
aF50.00000000000044
aF50.10000000000044
aF50.20000000000044
aF50.300000000000445
aF50.400000000000446
aF50.50000000000045
aF50.60000000000045
aF50.70000000000045
aF50.80000000000045
aF50.90000000000045
aF51.000000000000455
aF51.100000000000456
aF51.20000000000046
aF51.30000000000046
aF51.40000000000046
aF51.50000000000046
aF51.60000000000046
aF51.700000000000465
aF51.800000000000466
aF51.90000000000047
aF52.00000000000047
aF52.10000000000047
aF52.20000000000047
aF52.30000000000047
aF52.400000000000475
aF52.500000000000476
aF52.60000000000048
aF52.70000000000048
aF52.80000000000048
aF52.90000000000048
aF53.00000000000048
aF53.100000000000485
aF53.200000000000486
aF53.30000000000049
aF53.40000000000049
aF53.50000000000049
aF53.60000000000049
aF53.70000000000049
aF53.800000000000495
aF53.900000000000496
aF54.0000000000005
aF54.1000000000005
aF54.2000000000005
aF54.3000000000005
aF54.4000000000005
aF54.500000000000504
aF54.600000000000506
aF54.70000000000051
aF54.80000000000051
aF54.90000000000051
aF55.00000000000051
aF55.10000000000051
aF55.200000000000514
aF55.300000000000516
aF55.40000000000052
aF55.50000000000052
aF55.60000000000052
aF55.70000000000052
aF55.80000000000052
aF55.900000000000524
aF56.000000000000526
aF56.10000000000053
aF56.20000000000053
aF56.30000000000053
aF56.40000000000053
aF56.50000000000053
aF56.600000000000534
aF56.700000000000536
aF56.80000000000054
aF56.90000000000054
aF57.00000000000054
aF57.10000000000054
aF57.20000000000054
aF57.300000000000544
aF57.400000000000546
aF57.50000000000055
aF57.60000000000055
aF57.70000000000055
aF57.80000000000055
aF57.90000000000055
aF58.000000000000554
aF58.100000000000556
aF58.20000000000056
aF58.30000000000056
aF58.40000000000056
aF58.50000000000056
aF58.60000000000056
aF58.700000000000564
aF58.800000000000566
aF58.90000000000057
aF59.00000000000057
aF59.10000000000057
aF59.20000000000057
aF59.30000000000057
aF59.400000000000574
aF59.500000000000576
aF59.60000000000058
aF59.70000000000058
aF59.80000000000058
aF59.90000000000058
aF60.00000000000058
aF60.100000000000584
aF60.200000000000585
aF60.30000000000059
aF60.40000000000059
aF60.50000000000059
aF60.60000000000059
aF60.70000000000059
aF60.800000000000594
aF60.900000000000595
aF61.0000000000006
aF61.1000000000006
aF61.2000000000006
aF61.3000000000006
aF61.4000000000006
aF61.500000000000604
aF61.600000000000605
aF61.70000000000061
aF61.80000000000061
aF61.90000000000061
aF62.00000000000061
aF62.10000000000061
aF62.200000000000614
aF62.300000000000615
aF62.40000000000062
aF62.50000000000062
aF62.60000000000062
aF62.70000000000062
aF62.80000000000062
aF62.900000000000624
aF63.000000000000625
aF63.10000000000063
aF63.20000000000063
aF63.30000000000063
aF63.40000000000063
aF63.50000000000063
aF63.600000000000634
aF63.700000000000635
aF63.80000000000064
aF63.90000000000064
aF64.00000000000064
aF64.10000000000063
aF64.20000000000063
aF64.30000000000062
aF64.40000000000062
aF64.50000000000061
aF64.6000000000006
aF64.7000000000006
aF64.8000000000006
aF64.90000000000059
aF65.00000000000058
aF65.10000000000058
aF65.20000000000057
aF65.30000000000057
aF65.40000000000056
aF65.50000000000055
aF65.60000000000055
aF65.70000000000054
aF65.80000000000054
aF65.90000000000053
aF66.00000000000053
aF66.10000000000052
aF66.20000000000051
aF66.30000000000051
aF66.4000000000005
aF66.5000000000005
aF66.60000000000049
aF66.70000000000049
aF66.80000000000048
aF66.90000000000047
aF67.00000000000047
aF67.10000000000046
aF67.20000000000046
aF67.30000000000045
aF67.40000000000045
aF67.50000000000044
aF67.60000000000043
aF67.70000000000043
aF67.80000000000042
aF67.90000000000042
aF68.00000000000041
aF68.1000000000004
aF68.2000000000004
aF68.3000000000004
aF68.40000000000039
aF68.50000000000038
aF68.60000000000038
aF68.70000000000037
aF68.80000000000037
aF68.90000000000036
aF69.00000000000036
aF69.10000000000035
aF69.20000000000034
aF69.30000000000034
aF69.40000000000033
aF69.50000000000033
aF69.60000000000032
aF69.70000000000032
aF69.80000000000031
aF69.9000000000003
aF70.0000000000003
aF70.10000000000029
aF70.20000000000029
aF70.30000000000028
aF70.40000000000028
aF70.50000000000027
aF70.60000000000026
aF70.70000000000026
aF70.80000000000025
aF70.90000000000025
aF71.00000000000024
aF71.10000000000024
aF71.20000000000023
aF71.30000000000022
aF71.40000000000022
aF71.50000000000021
aF71.60000000000021
aF71.7000000000002
aF71.8000000000002
aF71.90000000000019
aF72.00000000000018
aF72.10000000000018
aF72.20000000000017
aF72.30000000000017
aF72.40000000000016
aF72.50000000000016
aF72.60000000000015
aF72.70000000000014
aF72.80000000000014
aF72.90000000000013
aF73.00000000000013
aF73.10000000000012
aF73.20000000000012
aF73.30000000000011
aF73.4000000000001
aa(lp2
(lp3
(dp4
S'y'
p5
F-1.5
sS'x'
p6
F-33.0
sS'psi'
p7
I0
sS'v'
p8
F0.0
sa(dp9
g5
F-1.5
sg6
F-38.0
sg7
I0
sg8
F0.0
saa(lp10
(dp11
g5
F-1.5
sg6
F-38.0
sg7
I0
sg8
F0.0
sa(dp12
g5
F-1.5
sg6
F-38.0
sg7
I0
sg8
F0.0
saa(lp13
(dp14
g5
F-1.5
sg6
F-38.0
sg7
I0
sg8
F0.0
sa(dp15
g5
F-1.5
sg6
F-43.0
sg7
I0
sg8
F0.0
saa(lp16
(dp17
g5
F-1.5
sg6
F-43.0
sg7
I0
sg8
F0.0
sa(dp18
g5
F-1.5
sg6
F-43.0
sg7
I0
sg8
F0.0
saa(lp19
(dp20
g5
F-1.5
sg6
F-43.0
sg7
I0
sg8
F0.0
sa(dp21
g5
F-1.5
sg6
F-48.0
sg7
I0
sg8
F0.0
saa(lp22
(dp23
g5
F-1.5
sg6
F-48.0
sg7
I0
sg8
F0.0
sa(dp24
g5
F-1.5
sg6
F-48.0
sg7
I0
sg8
F0.0
saa(lp25
(dp26
g5
F-1.5
sg6
F-48.0
sg7
I0
sg8
F0.0
sa(dp27
g5
F-1.5
sg6
F-53.0
sg7
I0
sg8
F0.0
saa(lp28
(dp29
g5
F-1.5
sg6
F-53.0
sg7
I0
sg8
F0.0
sa(dp30
g5
F-1.5
sg6
F-53.0
sg7
I0
sg8
F0.0
saa(lp31
(dp32
g5
F-1.5
sg6
F-53.0
sg7
I0
sg8
F0.0
sa(dp33
g5
F-1.5
sg6
F-58.0
sg7
I0
sg8
F0.0
saa(lp34
(dp35
g5
F-1.5
sg6
F-58.0
sg7
I0
sg8
F0.0
sa(dp36
g5
F-1.5
sg6
F-58.0
sg7
I0
sg8
F0.0
saa(lp37
(dp38
g5
F-1.5
sg6
F-58.0
sg7
I0
sg8
F0.0
sa(dp39
g5
F-1.5
sg6
F-63.0
sg7
I0
sg8
F0.0
saa(lp40
(dp41
g5
F-1.5
sg6
F-63.0
sg7
I0
sg8
F0.0
sa(dp42
g5
F-1.5
sg6
F-63.0
sg7
I0
sg8
F0.0
saa(lp43
(dp44
g5
F-1.5
sg6
F-63.0
sg7
I0
sg8
F0.0
sa(dp45
g5
F-1.5
sg6
F-68.0
sg7
I0
sg8
F0.0
saa(lp46
(dp47
g5
F-1.5
sg6
F-68.0
sg7
I0
sg8
F0.0
sa(dp48
g5
F-1.5
sg6
F-68.0
sg7
I0
sg8
F0.0
saa(lp49
(dp50
g5
F-1.5
sg6
F-68.0
sg7
I0
sg8
F0.0
sa(dp51
g5
F-1.5
sg6
F-73.0
sg7
I0
sg8
F0.0
saa(lp52
(dp53
g5
F-1.5
sg6
F-73.0
sg7
I0
sg8
F0.0
sa(dp54
g5
F-1.5
sg6
F-73.0
sg7
I0
sg8
F0.0
saa(lp55
(dp56
g5
F-1.5
sg6
F-73.0
sg7
I0
sg8
F0.0
sa(dp57
g5
F-1.5
sg6
F-78.0
sg7
I0
sg8
F0.0
saa(lp58
(dp59
g5
F-1.5
sg6
F-78.0
sg7
I0
sg8
F0.0
sa(dp60
g5
F-1.5
sg6
F-78.0
sg7
I0
sg8
F0.0
saa(lp61
(dp62
g5
F-1.5
sg6
F-78.0
sg7
I0
sg8
F0.0
sa(dp63
g5
F-1.5
sg6
F-83.0
sg7
I0
sg8
F0.0
saa(lp64
(dp65
g5
F-1.5
sg6
F-83.0
sg7
I0
sg8
F0.0
sa(dp66
g5
F-1.5
sg6
F-83.0
sg7
I0
sg8
F0.0
saa(lp67
(dp68
g5
F-1.5
sg6
F-83.0
sg7
I0
sg8
F0.0
sa(dp69
g5
F-1.5
sg6
F-88.0
sg7
I0
sg8
F0.0
saa(lp70
(dp71
g5
F-1.5
sg6
F-88.0
sg7
I0
sg8
F0.0
sa(dp72
g5
F-1.5
sg6
F-88.0
sg7
I0
sg8
F0.0
saa(lp73
(dp74
g5
F-1.5
sg6
F-88.0
sg7
I0
sg8
F0.0
sa(dp75
g5
F-1.5
sg6
F-93.0
sg7
I0
sg8
F0.0
saa(lp76
(dp77
g5
F-1.5
sg6
F-93.0
sg7
I0
sg8
F0.0
sa(dp78
g5
F-1.5
sg6
F-93.0
sg7
I0
sg8
F0.0
saa(lp79
(dp80
g5
F-1.5
sg6
F-93.0
sg7
I0
sg8
F0.0
sa(dp81
g5
F-1.5
sg6
F-98.0
sg7
I0
sg8
F0.0
saa(lp82
(dp83
g5
F-1.5
sg6
F-98.0
sg7
I0
sg8
F0.0
sa(dp84
g5
F-1.5
sg6
F-98.0
sg7
I0
sg8
F0.0
saa(lp85
(dp86
g5
F-1.5
sg6
F-98.0
sg7
I0
sg8
F0.0
sa(dp87
g5
F-1.5
sg6
F-103.0
sg7
I0
sg8
F0.0
saa(lp88
(dp89
g5
F-1.5
sg6
F-103.0
sg7
I0
sg8
F0.0
sa(dp90
g5
F-1.5
sg6
F-103.0
sg7
I0
sg8
F0.0
saa(lp91
(dp92
g5
F-1.5
sg6
F-103.0
sg7
I0
sg8
F0.0
sa(dp93
g5
F-1.5
sg6
F-108.0
sg7
I0
sg8
F0.0
saa(lp94
(dp95
g5
F-1.5
sg6
F-108.0
sg7
I0
sg8
F0.0
sa(dp96
g5
F-1.5
sg6
F-108.0
sg7
I0
sg8
F0.0
saa(lp97
(dp98
g5
F-1.5
sg6
F-108.0
sg7
I0
sg8
F0.0
sa(dp99
g5
F-1.5
sg6
F-113.0
sg7
I0
sg8
F0.0
saa(lp100
(dp101
g5
F-1.5
sg6
F-107.6
sg7
I0
sg8
F4.0
sa(dp102
g5
F-1.5
sg6
F-113.0
sg7
I0
sg8
F0.0
saa(lp103
(dp104
g5
F-1.5
sg6
F-107.19999999999999
sg7
I0
sg8
F4.0
sa(dp105
g5
F-1.5
sg6
F-113.0
sg7
I0
sg8
F0.0
saa(lp106
(dp107
g5
F-1.5
sg6
F-106.79999999999998
sg7
I0
sg8
F4.0
sa(dp108
g5
F-1.5
sg6
F-113.0
sg7
I0
sg8
F0.0
saa(lp109
(dp110
g5
F-1.5
sg6
F-106.39999999999998
sg7
I0
sg8
F4.0
sa(dp111
g5
F-1.5
sg6
F-113.0
sg7
I0
sg8
F0.0
saa(lp112
(dp113
g5
F-1.5
sg6
F-105.99999999999997
sg7
I0
sg8
F4.0
sa(dp114
g5
F-1.5
sg6
F-113.0
sg7
I0
sg8
F0.0
saa(lp115
(dp116
g5
F-1.5
sg6
F-105.59999999999997
sg7
I0
sg8
F4.0
sa(dp117
g5
F-1.5
sg6
F-113.0
sg7
I0
sg8
F0.0
saa(lp118
(dp119
g5
F-1.5
sg6
F-105.19999999999996
sg7
I0
sg8
F4.0
sa(dp120
g5
F-1.5
sg6
F-113.0
sg7
I0
sg8
F0.0
saa(lp121
(dp122
g5
F-1.5
sg6
F-104.79999999999995
sg7
I0
sg8
F4.0
sa(dp123
g5
F-1.5
sg6
F-113.0
sg7
I0
sg8
F0.0
saa(lp124
(dp125
g5
F-1.5
sg6
F-104.39999999999995
sg7
I0
sg8
F4.0
sa(dp126
g5
F-1.5
sg6
F-113.0
sg7
I0
sg8
F0.0
saa(lp127
(dp128
g5
F-1.5
sg6
F-103.99999999999994
sg7
I0
sg8
F4.0
sa(dp129
g5
F-1.5
sg6
F-113.0
sg7
I0
sg8
F0.0
saa(lp130
(dp131
g5
F-1.5
sg6
F-103.59999999999994
sg7
I0
sg8
F4.0
sa(dp132
g5
F-1.5
sg6
F-108.59999999999994
sg7
I0
sg8
F0.0
saa(lp133
(dp134
g5
F-1.5
sg6
F-103.19999999999993
sg7
I0
sg8
F4.0
sa(dp135
g5
F-1.5
sg6
F-108.59999999999994
sg7
I0
sg8
F0.0
saa(lp136
(dp137
g5
F-1.5
sg6
F-102.79999999999993
sg7
I0
sg8
F4.0
sa(dp138
g5
F-1.5
sg6
F-108.59999999999994
sg7
I0
sg8
F0.0
saa(lp139
(dp140
g5
F-1.5
sg6
F-102.39999999999992
sg7
I0
sg8
F4.0
sa(dp141
g5
F-1.5
sg6
F-108.59999999999994
sg7
I0
sg8
F0.0
saa(lp142
(dp143
g5
F-1.5
sg6
F-101.99999999999991
sg7
I0
sg8
F4.0
sa(dp144
g5
F-1.5
sg6
F-108.59999999999994
sg7
I0
sg8
F0.0
saa(lp145
(dp146
g5
F-1.5
sg6
F-101.59999999999991
sg7
I0
sg8
F4.0
sa(dp147
g5
F-1.5
sg6
F-108.59999999999994
sg7
I0
sg8
F0.0
saa(lp148
(dp149
g5
F-1.5
sg6
F-101.1999999999999
sg7
I0
sg8
F4.0
sa(dp150
g5
F-1.5
sg6
F-108.59999999999994
sg7
I0
sg8
F0.0
saa(lp151
(dp152
g5
F-1.5
sg6
F-100.7999999999999
sg7
I0
sg8
F4.0
sa(dp153
g5
F-1.5
sg6
F-108.59999999999994
sg7
I0
sg8
F0.0
saa(lp154
(dp155
g5
F-1.5
sg6
F-100.39999999999989
sg7
I0
sg8
F4.0
sa(dp156
g5
F-1.5
sg6
F-108.59999999999994
sg7
I0
sg8
F0.0
saa(lp157
(dp158
g5
F-1.5
sg6
F-99.99999999999989
sg7
I0
sg8
F4.0
sa(dp159
g5
F-1.5
sg6
F-108.59999999999994
sg7
I0
sg8
F0.0
saa(lp160
(dp161
g5
F-1.5
sg6
F-99.59999999999988
sg7
I0
sg8
F4.0
sa(dp162
g5
F-1.5
sg6
F-108.19999999999993
sg7
I0
sg8
F4.0
saa(lp163
(dp164
g5
F-1.5
sg6
F-99.19999999999987
sg7
I0
sg8
F4.0
sa(dp165
g5
F-1.5
sg6
F-107.79999999999993
sg7
I0
sg8
F4.0
saa(lp166
(dp167
g5
F-1.5
sg6
F-98.79999999999987
sg7
I0
sg8
F4.0
sa(dp168
g5
F-1.5
sg6
F-107.79999999999993
sg7
I0
sg8
F4.0
saa(lp169
(dp170
g5
F-1.5
sg6
F-98.39999999999986
sg7
I0
sg8
F4.0
sa(dp171
g5
F-1.5
sg6
F-107.39999999999992
sg7
I0
sg8
F4.0
saa(lp172
(dp173
g5
F-1.5
sg6
F-97.99999999999986
sg7
I0
sg8
F4.0
sa(dp174
g5
F-1.5
sg6
F-106.99999999999991
sg7
I0
sg8
F4.0
saa(lp175
(dp176
g5
F-1.5
sg6
F-97.59999999999985
sg7
I0
sg8
F4.0
sa(dp177
g5
F-1.5
sg6
F-106.59999999999991
sg7
I0
sg8
F4.0
saa(lp178
(dp179
g5
F-1.5
sg6
F-97.19999999999985
sg7
I0
sg8
F4.0
sa(dp180
g5
F-1.5
sg6
F-106.1999999999999
sg7
I0
sg8
F4.0
saa(lp181
(dp182
g5
F-1.5
sg6
F-96.79999999999984
sg7
I0
sg8
F4.0
sa(dp183
g5
F-1.5
sg6
F-105.7999999999999
sg7
I0
sg8
F4.0
saa(lp184
(dp185
g5
F-1.5
sg6
F-96.39999999999984
sg7
I0
sg8
F4.0
sa(dp186
g5
F-1.5
sg6
F-105.39999999999989
sg7
I0
sg8
F4.0
saa(lp187
(dp188
g5
F-1.5
sg6
F-95.99999999999983
sg7
I0
sg8
F4.0
sa(dp189
g5
F-1.5
sg6
F-104.99999999999989
sg7
I0
sg8
F4.0
saa(lp190
(dp191
g5
F-1.5
sg6
F-95.59999999999982
sg7
I0
sg8
F4.0
sa(dp192
g5
F-1.5
sg6
F-104.59999999999988
sg7
I0
sg8
F4.0
saa(lp193
(dp194
g5
F-1.5
sg6
F-95.19999999999982
sg7
I0
sg8
F4.0
sa(dp195
g5
F-1.5
sg6
F-104.19999999999987
sg7
I0
sg8
F4.0
saa(lp196
(dp197
g5
F-1.5
sg6
F-94.79999999999981
sg7
I0
sg8
F4.0
sa(dp198
g5
F-1.5
sg6
F-103.79999999999987
sg7
I0
sg8
F4.0
saa(lp199
(dp200
g5
F-1.5
sg6
F-94.3999999999998
sg7
I0
sg8
F4.0
sa(dp201
g5
F-1.5
sg6
F-103.39999999999986
sg7
I0
sg8
F4.0
saa(lp202
(dp203
g5
F-1.5
sg6
F-93.9999999999998
sg7
I0
sg8
F4.0
sa(dp204
g5
F-1.5
sg6
F-102.99999999999986
sg7
I0
sg8
F4.0
saa(lp205
(dp206
g5
F-1.5
sg6
F-93.5999999999998
sg7
I0
sg8
F4.0
sa(dp207
g5
F-1.5
sg6
F-102.59999999999985
sg7
I0
sg8
F4.0
saa(lp208
(dp209
g5
F-1.5
sg6
F-93.19999999999979
sg7
I0
sg8
F4.0
sa(dp210
g5
F-1.5
sg6
F-102.19999999999985
sg7
I0
sg8
F4.0
saa(lp211
(dp212
g5
F-1.5
sg6
F-92.79999999999978
sg7
I0
sg8
F4.0
sa(dp213
g5
F-1.5
sg6
F-101.79999999999984
sg7
I0
sg8
F4.0
saa(lp214
(dp215
g5
F-1.5
sg6
F-92.39999999999978
sg7
I0
sg8
F4.0
sa(dp216
g5
F-1.5
sg6
F-101.39999999999984
sg7
I0
sg8
F4.0
saa(lp217
(dp218
g5
F-1.5
sg6
F-91.99999999999977
sg7
I0
sg8
F4.0
sa(dp219
g5
F-1.5
sg6
F-100.99999999999983
sg7
I0
sg8
F4.0
saa(lp220
(dp221
g5
F-1.5
sg6
F-91.59999999999977
sg7
I0
sg8
F4.0
sa(dp222
g5
F-1.5
sg6
F-100.59999999999982
sg7
I0
sg8
F4.0
saa(lp223
(dp224
g5
F-1.5
sg6
F-91.19999999999976
sg7
I0
sg8
F4.0
sa(dp225
g5
F-1.5
sg6
F-100.19999999999982
sg7
I0
sg8
F4.0
saa(lp226
(dp227
g5
F-1.5
sg6
F-90.79999999999976
sg7
I0
sg8
F4.0
sa(dp228
g5
F-1.5
sg6
F-99.79999999999981
sg7
I0
sg8
F4.0
saa(lp229
(dp230
g5
F-1.5
sg6
F-90.39999999999975
sg7
I0
sg8
F4.0
sa(dp231
g5
F-1.5
sg6
F-99.3999999999998
sg7
I0
sg8
F4.0
saa(lp232
(dp233
g5
F-1.5
sg6
F-89.99999999999974
sg7
I0
sg8
F4.0
sa(dp234
g5
F-1.5
sg6
F-98.9999999999998
sg7
I0
sg8
F4.0
saa(lp235
(dp236
g5
F-1.5
sg6
F-89.59999999999974
sg7
I0
sg8
F4.0
sa(dp237
g5
F-1.5
sg6
F-98.5999999999998
sg7
I0
sg8
F4.0
saa(lp238
(dp239
g5
F-1.5
sg6
F-89.19999999999973
sg7
I0
sg8
F4.0
sa(dp240
g5
F-1.5
sg6
F-98.19999999999979
sg7
I0
sg8
F4.0
saa(lp241
(dp242
g5
F-1.5
sg6
F-88.79999999999973
sg7
I0
sg8
F4.0
sa(dp243
g5
F-1.5
sg6
F-97.79999999999978
sg7
I0
sg8
F4.0
saa(lp244
(dp245
g5
F-1.5
sg6
F-88.39999999999972
sg7
I0
sg8
F4.0
sa(dp246
g5
F-1.5
sg6
F-97.39999999999978
sg7
I0
sg8
F4.0
saa(lp247
(dp248
g5
F-1.5
sg6
F-87.99999999999972
sg7
I0
sg8
F4.0
sa(dp249
g5
F-1.5
sg6
F-96.99999999999977
sg7
I0
sg8
F4.0
saa(lp250
(dp251
g5
F-1.5
sg6
F-87.59999999999971
sg7
I0
sg8
F4.0
sa(dp252
g5
F-1.5
sg6
F-96.59999999999977
sg7
I0
sg8
F4.0
saa(lp253
(dp254
g5
F-1.5
sg6
F-87.1999999999997
sg7
I0
sg8
F4.0
sa(dp255
g5
F-1.5
sg6
F-96.19999999999976
sg7
I0
sg8
F4.0
saa(lp256
(dp257
g5
F-1.5
sg6
F-86.7999999999997
sg7
I0
sg8
F4.0
sa(dp258
g5
F-1.5
sg6
F-95.79999999999976
sg7
I0
sg8
F4.0
saa(lp259
(dp260
g5
F-1.5
sg6
F-86.3999999999997
sg7
I0
sg8
F4.0
sa(dp261
g5
F-1.5
sg6
F-95.39999999999975
sg7
I0
sg8
F4.0
saa(lp262
(dp263
g5
F-1.5
sg6
F-85.99999999999969
sg7
I0
sg8
F4.0
sa(dp264
g5
F-1.5
sg6
F-94.99999999999974
sg7
I0
sg8
F4.0
saa(lp265
(dp266
g5
F-1.5
sg6
F-85.59999999999968
sg7
I0
sg8
F4.0
sa(dp267
g5
F-1.5
sg6
F-94.59999999999974
sg7
I0
sg8
F4.0
saa(lp268
(dp269
g5
F-1.5
sg6
F-85.19999999999968
sg7
I0
sg8
F4.0
sa(dp270
g5
F-1.5
sg6
F-94.19999999999973
sg7
I0
sg8
F4.0
saa(lp271
(dp272
g5
F-1.5
sg6
F-84.79999999999967
sg7
I0
sg8
F4.0
sa(dp273
g5
F-1.5
sg6
F-93.79999999999973
sg7
I0
sg8
F4.0
saa(lp274
(dp275
g5
F-1.5
sg6
F-84.39999999999966
sg7
I0
sg8
F4.0
sa(dp276
g5
F-1.5
sg6
F-93.39999999999972
sg7
I0
sg8
F4.0
saa(lp277
(dp278
g5
F-1.5
sg6
F-83.99999999999966
sg7
I0
sg8
F4.0
sa(dp279
g5
F-1.5
sg6
F-92.99999999999972
sg7
I0
sg8
F4.0
saa(lp280
(dp281
g5
F-1.5
sg6
F-83.59999999999965
sg7
I0
sg8
F4.0
sa(dp282
g5
F-1.5
sg6
F-92.59999999999971
sg7
I0
sg8
F4.0
saa(lp283
(dp284
g5
F-1.5
sg6
F-83.19999999999965
sg7
I0
sg8
F4.0
sa(dp285
g5
F-1.5
sg6
F-92.1999999999997
sg7
I0
sg8
F4.0
saa(lp286
(dp287
g5
F-1.5
sg6
F-82.79999999999964
sg7
I0
sg8
F4.0
sa(dp288
g5
F-1.5
sg6
F-91.7999999999997
sg7
I0
sg8
F4.0
saa(lp289
(dp290
g5
F-1.5
sg6
F-82.39999999999964
sg7
I0
sg8
F4.0
sa(dp291
g5
F-1.5
sg6
F-91.3999999999997
sg7
I0
sg8
F4.0
saa(lp292
(dp293
g5
F-1.5
sg6
F-81.99999999999963
sg7
I0
sg8
F4.0
sa(dp294
g5
F-1.5
sg6
F-90.99999999999969
sg7
I0
sg8
F4.0
saa(lp295
(dp296
g5
F-1.5
sg6
F-81.59999999999962
sg7
I0
sg8
F4.0
sa(dp297
g5
F-1.5
sg6
F-90.59999999999968
sg7
I0
sg8
F4.0
saa(lp298
(dp299
g5
F-1.5
sg6
F-81.19999999999962
sg7
I0
sg8
F4.0
sa(dp300
g5
F-1.5
sg6
F-90.19999999999968
sg7
I0
sg8
F4.0
saa(lp301
(dp302
g5
F-1.5
sg6
F-80.79999999999961
sg7
I0
sg8
F4.0
sa(dp303
g5
F-1.5
sg6
F-89.79999999999967
sg7
I0
sg8
F4.0
saa(lp304
(dp305
g5
F-1.5
sg6
F-80.39999999999961
sg7
I0
sg8
F4.0
sa(dp306
g5
F-1.5
sg6
F-89.39999999999966
sg7
I0
sg8
F4.0
saa(lp307
(dp308
g5
F-1.5
sg6
F-79.9999999999996
sg7
I0
sg8
F4.0
sa(dp309
g5
F-1.5
sg6
F-88.99999999999966
sg7
I0
sg8
F4.0
saa(lp310
(dp311
g5
F-1.5
sg6
F-79.5999999999996
sg7
I0
sg8
F4.0
sa(dp312
g5
F-1.5
sg6
F-88.59999999999965
sg7
I0
sg8
F4.0
saa(lp313
(dp314
g5
F-1.5
sg6
F-79.19999999999959
sg7
I0
sg8
F4.0
sa(dp315
g5
F-1.5
sg6
F-88.19999999999965
sg7
I0
sg8
F4.0
saa(lp316
(dp317
g5
F-1.5
sg6
F-78.79999999999959
sg7
I0
sg8
F4.0
sa(dp318
g5
F-1.5
sg6
F-87.79999999999964
sg7
I0
sg8
F4.0
saa(lp319
(dp320
g5
F-1.5
sg6
F-78.39999999999958
sg7
I0
sg8
F4.0
sa(dp321
g5
F-1.5
sg6
F-87.39999999999964
sg7
I0
sg8
F4.0
saa(lp322
(dp323
g5
F-1.5
sg6
F-77.99999999999957
sg7
I0
sg8
F4.0
sa(dp324
g5
F-1.5
sg6
F-86.99999999999963
sg7
I0
sg8
F4.0
saa(lp325
(dp326
g5
F-1.5
sg6
F-77.59999999999957
sg7
I0
sg8
F4.0
sa(dp327
g5
F-1.5
sg6
F-86.59999999999962
sg7
I0
sg8
F4.0
saa(lp328
(dp329
g5
F-1.5
sg6
F-77.19999999999956
sg7
I0
sg8
F4.0
sa(dp330
g5
F-1.5
sg6
F-86.19999999999962
sg7
I0
sg8
F4.0
saa(lp331
(dp332
g5
F-1.5
sg6
F-76.79999999999956
sg7
I0
sg8
F4.0
sa(dp333
g5
F-1.5
sg6
F-85.79999999999961
sg7
I0
sg8
F4.0
saa(lp334
(dp335
g5
F-1.5
sg6
F-76.39999999999955
sg7
I0
sg8
F4.0
sa(dp336
g5
F-1.5
sg6
F-85.39999999999961
sg7
I0
sg8
F4.0
saa(lp337
(dp338
g5
F-1.5
sg6
F-75.99999999999955
sg7
I0
sg8
F4.0
sa(dp339
g5
F-1.5
sg6
F-84.9999999999996
sg7
I0
sg8
F4.0
saa(lp340
(dp341
g5
F-1.5
sg6
F-75.59999999999954
sg7
I0
sg8
F4.0
sa(dp342
g5
F-1.5
sg6
F-84.5999999999996
sg7
I0
sg8
F4.0
saa(lp343
(dp344
g5
F-1.5
sg6
F-75.19999999999953
sg7
I0
sg8
F4.0
sa(dp345
g5
F-1.5
sg6
F-84.19999999999959
sg7
I0
sg8
F4.0
saa(lp346
(dp347
g5
F-1.5
sg6
F-74.79999999999953
sg7
I0
sg8
F4.0
sa(dp348
g5
F-1.5
sg6
F-83.79999999999959
sg7
I0
sg8
F4.0
saa(lp349
(dp350
g5
F-1.5
sg6
F-74.39999999999952
sg7
I0
sg8
F4.0
sa(dp351
g5
F-1.5
sg6
F-83.39999999999958
sg7
I0
sg8
F4.0
saa(lp352
(dp353
g5
F-1.5
sg6
F-73.99999999999952
sg7
I0
sg8
F4.0
sa(dp354
g5
F-1.5
sg6
F-82.99999999999957
sg7
I0
sg8
F4.0
saa(lp355
(dp356
g5
F-1.5
sg6
F-73.59999999999951
sg7
I0
sg8
F4.0
sa(dp357
g5
F-1.5
sg6
F-82.59999999999957
sg7
I0
sg8
F4.0
saa(lp358
(dp359
g5
F-1.5
sg6
F-73.1999999999995
sg7
I0
sg8
F4.0
sa(dp360
g5
F-1.5
sg6
F-82.19999999999956
sg7
I0
sg8
F4.0
saa(lp361
(dp362
g5
F-1.5
sg6
F-72.7999999999995
sg7
I0
sg8
F4.0
sa(dp363
g5
F-1.5
sg6
F-81.79999999999956
sg7
I0
sg8
F4.0
saa(lp364
(dp365
g5
F-1.5
sg6
F-72.3999999999995
sg7
I0
sg8
F4.0
sa(dp366
g5
F-1.5
sg6
F-81.39999999999955
sg7
I0
sg8
F4.0
saa(lp367
(dp368
g5
F-1.5
sg6
F-71.99999999999949
sg7
I0
sg8
F4.0
sa(dp369
g5
F-1.5
sg6
F-80.99999999999955
sg7
I0
sg8
F4.0
saa(lp370
(dp371
g5
F-1.5
sg6
F-71.59999999999948
sg7
I0
sg8
F4.0
sa(dp372
g5
F-1.5
sg6
F-80.59999999999954
sg7
I0
sg8
F4.0
saa(lp373
(dp374
g5
F-1.5
sg6
F-71.19999999999948
sg7
I0
sg8
F4.0
sa(dp375
g5
F-1.5
sg6
F-80.19999999999953
sg7
I0
sg8
F4.0
saa(lp376
(dp377
g5
F-1.5
sg6
F-70.79999999999947
sg7
I0
sg8
F4.0
sa(dp378
g5
F-1.5
sg6
F-79.79999999999953
sg7
I0
sg8
F4.0
saa(lp379
(dp380
g5
F-1.5
sg6
F-70.39999999999947
sg7
I0
sg8
F4.0
sa(dp381
g5
F-1.5
sg6
F-79.39999999999952
sg7
I0
sg8
F4.0
saa(lp382
(dp383
g5
F-1.5
sg6
F-69.99999999999946
sg7
I0
sg8
F4.0
sa(dp384
g5
F-1.5
sg6
F-78.99999999999952
sg7
I0
sg8
F4.0
saa(lp385
(dp386
g5
F-1.5
sg6
F-69.59999999999945
sg7
I0
sg8
F4.0
sa(dp387
g5
F-1.5
sg6
F-78.59999999999951
sg7
I0
sg8
F4.0
saa(lp388
(dp389
g5
F-1.5
sg6
F-69.19999999999945
sg7
I0
sg8
F4.0
sa(dp390
g5
F-1.5
sg6
F-78.1999999999995
sg7
I0
sg8
F4.0
saa(lp391
(dp392
g5
F-1.5
sg6
F-68.79999999999944
sg7
I0
sg8
F4.0
sa(dp393
g5
F-1.5
sg6
F-77.7999999999995
sg7
I0
sg8
F4.0
saa(lp394
(dp395
g5
F-1.5
sg6
F-68.39999999999944
sg7
I0
sg8
F4.0
sa(dp396
g5
F-1.5
sg6
F-77.3999999999995
sg7
I0
sg8
F4.0
saa(lp397
(dp398
g5
F-1.5
sg6
F-67.99999999999943
sg7
I0
sg8
F4.0
sa(dp399
g5
F-1.5
sg6
F-76.99999999999949
sg7
I0
sg8
F4.0
saa(lp400
(dp401
g5
F-1.5
sg6
F-67.59999999999943
sg7
I0
sg8
F4.0
sa(dp402
g5
F-1.5
sg6
F-76.59999999999948
sg7
I0
sg8
F4.0
saa(lp403
(dp404
g5
F-1.5
sg6
F-67.19999999999942
sg7
I0
sg8
F4.0
sa(dp405
g5
F-1.5
sg6
F-76.19999999999948
sg7
I0
sg8
F4.0
saa(lp406
(dp407
g5
F-1.5
sg6
F-66.79999999999941
sg7
I0
sg8
F4.0
sa(dp408
g5
F-1.5
sg6
F-75.79999999999947
sg7
I0
sg8
F4.0
saa(lp409
(dp410
g5
F-1.5
sg6
F-66.39999999999941
sg7
I0
sg8
F4.0
sa(dp411
g5
F-1.5
sg6
F-75.39999999999947
sg7
I0
sg8
F4.0
saa(lp412
(dp413
g5
F-1.5
sg6
F-65.9999999999994
sg7
I0
sg8
F4.0
sa(dp414
g5
F-1.5
sg6
F-74.99999999999946
sg7
I0
sg8
F4.0
saa(lp415
(dp416
g5
F-1.5
sg6
F-65.5999999999994
sg7
I0
sg8
F4.0
sa(dp417
g5
F-1.5
sg6
F-74.59999999999945
sg7
I0
sg8
F4.0
saa(lp418
(dp419
g5
F-1.5
sg6
F-65.19999999999939
sg7
I0
sg8
F4.0
sa(dp420
g5
F-1.5
sg6
F-74.19999999999945
sg7
I0
sg8
F4.0
saa(lp421
(dp422
g5
F-1.5
sg6
F-64.79999999999939
sg7
I0
sg8
F4.0
sa(dp423
g5
F-1.5
sg6
F-73.79999999999944
sg7
I0
sg8
F4.0
saa(lp424
(dp425
g5
F-1.5
sg6
F-64.39999999999938
sg7
I0
sg8
F4.0
sa(dp426
g5
F-1.5
sg6
F-73.39999999999944
sg7
I0
sg8
F4.0
saa(lp427
(dp428
g5
F-1.5
sg6
F-63.99999999999938
sg7
I0
sg8
F4.0
sa(dp429
g5
F-1.5
sg6
F-72.99999999999943
sg7
I0
sg8
F4.0
saa(lp430
(dp431
g5
F-1.5
sg6
F-63.59999999999938
sg7
I0
sg8
F4.0
sa(dp432
g5
F-1.5
sg6
F-72.59999999999943
sg7
I0
sg8
F4.0
saa(lp433
(dp434
g5
F-1.5
sg6
F-63.199999999999385
sg7
I0
sg8
F4.0
sa(dp435
g5
F-1.5
sg6
F-72.19999999999942
sg7
I0
sg8
F4.0
saa(lp436
(dp437
g5
F-1.5
sg6
F-62.799999999999386
sg7
I0
sg8
F4.0
sa(dp438
g5
F-1.5
sg6
F-71.79999999999941
sg7
I0
sg8
F4.0
saa(lp439
(dp440
g5
F-1.5
sg6
F-62.39999999999939
sg7
I0
sg8
F4.0
sa(dp441
g5
F-1.5
sg6
F-71.39999999999941
sg7
I0
sg8
F4.0
saa(lp442
(dp443
g5
F-1.5
sg6
F-61.99999999999939
sg7
I0
sg8
F4.0
sa(dp444
g5
F-1.5
sg6
F-70.9999999999994
sg7
I0
sg8
F4.0
saa(lp445
(dp446
g5
F-1.5
sg6
F-61.59999999999939
sg7
I0
sg8
F4.0
sa(dp447
g5
F-1.5
sg6
F-70.5999999999994
sg7
I0
sg8
F4.0
saa(lp448
(dp449
g5
F-1.5
sg6
F-61.19999999999939
sg7
I0
sg8
F4.0
sa(dp450
g5
F-1.5
sg6
F-70.19999999999939
sg7
I0
sg8
F4.0
saa(lp451
(dp452
g5
F-1.5
sg6
F-60.79999999999939
sg7
I0
sg8
F4.0
sa(dp453
g5
F-1.5
sg6
F-69.79999999999939
sg7
I0
sg8
F4.0
saa(lp454
(dp455
g5
F-1.5
sg6
F-60.399999999999395
sg7
I0
sg8
F4.0
sa(dp456
g5
F-1.5
sg6
F-69.39999999999938
sg7
I0
sg8
F4.0
saa(lp457
(dp458
g5
F-1.5
sg6
F-59.999999999999396
sg7
I0
sg8
F4.0
sa(dp459
g5
F-1.5
sg6
F-68.99999999999937
sg7
I0
sg8
F4.0
saa(lp460
(dp461
g5
F-1.5
sg6
F-59.5999999999994
sg7
I0
sg8
F4.0
sa(dp462
g5
F-1.5
sg6
F-68.59999999999937
sg7
I0
sg8
F4.0
saa(lp463
(dp464
g5
F-1.5
sg6
F-59.1999999999994
sg7
I0
sg8
F4.0
sa(dp465
g5
F-1.5
sg6
F-68.19999999999936
sg7
I0
sg8
F4.0
saa(lp466
(dp467
g5
F-1.5
sg6
F-58.7999999999994
sg7
I0
sg8
F4.0
sa(dp468
g5
F-1.5
sg6
F-67.79999999999936
sg7
I0
sg8
F4.0
saa(lp469
(dp470
g5
F-1.5
sg6
F-58.3999999999994
sg7
I0
sg8
F4.0
sa(dp471
g5
F-1.5
sg6
F-67.39999999999935
sg7
I0
sg8
F4.0
saa(lp472
(dp473
g5
F-1.5
sg6
F-57.9999999999994
sg7
I0
sg8
F4.0
sa(dp474
g5
F-1.5
sg6
F-66.99999999999935
sg7
I0
sg8
F4.0
saa(lp475
(dp476
g5
F-1.5
sg6
F-57.599999999999405
sg7
I0
sg8
F4.0
sa(dp477
g5
F-1.5
sg6
F-66.59999999999934
sg7
I0
sg8
F4.0
saa(lp478
(dp479
g5
F-1.5
sg6
F-57.199999999999406
sg7
I0
sg8
F4.0
sa(dp480
g5
F-1.5
sg6
F-66.19999999999933
sg7
I0
sg8
F4.0
saa(lp481
(dp482
g5
F-1.5
sg6
F-56.79999999999941
sg7
I0
sg8
F4.0
sa(dp483
g5
F-1.5
sg6
F-65.79999999999933
sg7
I0
sg8
F4.0
saa(lp484
(dp485
g5
F-1.5
sg6
F-56.39999999999941
sg7
I0
sg8
F4.0
sa(dp486
g5
F-1.5
sg6
F-65.39999999999932
sg7
I0
sg8
F4.0
saa(lp487
(dp488
g5
F-1.5
sg6
F-55.99999999999941
sg7
I0
sg8
F4.0
sa(dp489
g5
F-1.5
sg6
F-64.99999999999932
sg7
I0
sg8
F4.0
saa(lp490
(dp491
g5
F-1.5
sg6
F-55.59999999999941
sg7
I0
sg8
F4.0
sa(dp492
g5
F-1.5
sg6
F-64.59999999999931
sg7
I0
sg8
F4.0
saa(lp493
(dp494
g5
F-1.5
sg6
F-55.19999999999941
sg7
I0
sg8
F4.0
sa(dp495
g5
F-1.5
sg6
F-64.1999999999993
sg7
I0
sg8
F4.0
saa(lp496
(dp497
g5
F-1.5
sg6
F-54.799999999999415
sg7
I0
sg8
F4.0
sa(dp498
g5
F-1.5
sg6
F-63.79999999999931
sg7
I0
sg8
F4.0
saa(lp499
(dp500
g5
F-1.5
sg6
F-54.399999999999416
sg7
I0
sg8
F4.0
sa(dp501
g5
F-1.5
sg6
F-63.39999999999931
sg7
I0
sg8
F4.0
saa(lp502
(dp503
g5
F-1.5
sg6
F-53.99999999999942
sg7
I0
sg8
F4.0
sa(dp504
g5
F-1.5
sg6
F-62.99999999999931
sg7
I0
sg8
F4.0
saa(lp505
(dp506
g5
F-1.5
sg6
F-53.59999999999942
sg7
I0
sg8
F4.0
sa(dp507
g5
F-1.5
sg6
F-62.59999999999931
sg7
I0
sg8
F4.0
saa(lp508
(dp509
g5
F-1.5
sg6
F-53.19999999999942
sg7
I0
sg8
F4.0
sa(dp510
g5
F-1.5
sg6
F-62.199999999999314
sg7
I0
sg8
F4.0
saa(lp511
(dp512
g5
F-1.5
sg6
F-52.79999999999942
sg7
I0
sg8
F4.0
sa(dp513
g5
F-1.5
sg6
F-61.799999999999315
sg7
I0
sg8
F4.0
saa(lp514
(dp515
g5
F-1.5
sg6
F-52.39999999999942
sg7
I0
sg8
F4.0
sa(dp516
g5
F-1.5
sg6
F-61.39999999999932
sg7
I0
sg8
F4.0
saa(lp517
(dp518
g5
F-1.5
sg6
F-51.999999999999424
sg7
I0
sg8
F4.0
sa(dp519
g5
F-1.5
sg6
F-60.99999999999932
sg7
I0
sg8
F4.0
saa(lp520
(dp521
g5
F-1.5
sg6
F-51.599999999999426
sg7
I0
sg8
F4.0
sa(dp522
g5
F-1.5
sg6
F-60.59999999999932
sg7
I0
sg8
F4.0
saa(lp523
(dp524
g5
F-1.5
sg6
F-51.19999999999943
sg7
I0
sg8
F4.0
sa(dp525
g5
F-1.5
sg6
F-60.19999999999932
sg7
I0
sg8
F4.0
saa(lp526
(dp527
g5
F-1.5
sg6
F-50.79999999999943
sg7
I0
sg8
F4.0
sa(dp528
g5
F-1.5
sg6
F-59.79999999999932
sg7
I0
sg8
F4.0
saa(lp529
(dp530
g5
F-1.5
sg6
F-50.39999999999943
sg7
I0
sg8
F4.0
sa(dp531
g5
F-1.5
sg6
F-59.399999999999324
sg7
I0
sg8
F4.0
saa(lp532
(dp533
g5
F-1.5
sg6
F-49.99999999999943
sg7
I0
sg8
F4.0
sa(dp534
g5
F-1.5
sg6
F-58.999999999999325
sg7
I0
sg8
F4.0
saa(lp535
(dp536
g5
F-1.5
sg6
F-49.59999999999943
sg7
I0
sg8
F4.0
sa(dp537
g5
F-1.5
sg6
F-58.599999999999326
sg7
I0
sg8
F4.0
saa(lp538
(dp539
g5
F-1.5
sg6
F-49.199999999999434
sg7
I0
sg8
F4.0
sa(dp540
g5
F-1.5
sg6
F-58.19999999999933
sg7
I0
sg8
F4.0
saa(lp541
(dp542
g5
F-1.5
sg6
F-48.799999999999436
sg7
I0
sg8
F4.0
sa(dp543
g5
F-1.5
sg6
F-57.79999999999933
sg7
I0
sg8
F4.0
saa(lp544
(dp545
g5
F-1.5
sg6
F-48.39999999999944
sg7
I0
sg8
F4.0
sa(dp546
g5
F-1.5
sg6
F-57.39999999999933
sg7
I0
sg8
F4.0
saa(lp547
(dp548
g5
F-1.5
sg6
F-47.99999999999944
sg7
I0
sg8
F4.0
sa(dp549
g5
F-1.5
sg6
F-56.99999999999933
sg7
I0
sg8
F4.0
saa(lp550
(dp551
g5
F-1.5
sg6
F-47.59999999999944
sg7
I0
sg8
F4.0
sa(dp552
g5
F-1.5
sg6
F-56.59999999999933
sg7
I0
sg8
F4.0
saa(lp553
(dp554
g5
F-1.5
sg6
F-47.19999999999944
sg7
I0
sg8
F4.0
sa(dp555
g5
F-1.5
sg6
F-56.199999999999335
sg7
I0
sg8
F4.0
saa(lp556
(dp557
g5
F-1.5
sg6
F-46.79999999999944
sg7
I0
sg8
F4.0
sa(dp558
g5
F-1.5
sg6
F-55.799999999999336
sg7
I0
sg8
F4.0
saa(lp559
(dp560
g5
F-1.5
sg6
F-46.399999999999444
sg7
I0
sg8
F4.0
sa(dp561
g5
F-1.5
sg6
F-55.39999999999934
sg7
I0
sg8
F4.0
saa(lp562
(dp563
g5
F-1.5
sg6
F-45.999999999999446
sg7
I0
sg8
F4.0
sa(dp564
g5
F-1.5
sg6
F-54.99999999999934
sg7
I0
sg8
F4.0
saa(lp565
(dp566
g5
F-1.5
sg6
F-45.59999999999945
sg7
I0
sg8
F4.0
sa(dp567
g5
F-1.5
sg6
F-54.59999999999934
sg7
I0
sg8
F4.0
saa(lp568
(dp569
g5
F-1.5
sg6
F-45.19999999999945
sg7
I0
sg8
F4.0
sa(dp570
g5
F-1.5
sg6
F-54.19999999999934
sg7
I0
sg8
F4.0
saa(lp571
(dp572
g5
F-1.5
sg6
F-44.79999999999945
sg7
I0
sg8
F4.0
sa(dp573
g5
F-1.5
sg6
F-53.79999999999934
sg7
I0
sg8
F4.0
saa(lp574
(dp575
g5
F-1.5
sg6
F-44.39999999999945
sg7
I0
sg8
F4.0
sa(dp576
g5
F-1.5
sg6
F-53.399999999999345
sg7
I0
sg8
F4.0
saa(lp577
(dp578
g5
F-1.5
sg6
F-43.99999999999945
sg7
I0
sg8
F4.0
sa(dp579
g5
F-1.5
sg6
F-52.999999999999346
sg7
I0
sg8
F4.0
saa(lp580
(dp581
g5
F-1.5
sg6
F-43.599999999999454
sg7
I0
sg8
F4.0
sa(dp582
g5
F-1.5
sg6
F-52.59999999999935
sg7
I0
sg8
F4.0
saa(lp583
(dp584
g5
F-1.5
sg6
F-43.199999999999456
sg7
I0
sg8
F4.0
sa(dp585
g5
F-1.5
sg6
F-52.19999999999935
sg7
I0
sg8
F4.0
saa(lp586
(dp587
g5
F-1.5
sg6
F-42.79999999999946
sg7
I0
sg8
F4.0
sa(dp588
g5
F-1.5
sg6
F-51.79999999999935
sg7
I0
sg8
F4.0
saa(lp589
(dp590
g5
F-1.5
sg6
F-42.39999999999946
sg7
I0
sg8
F4.0
sa(dp591
g5
F-1.5
sg6
F-51.39999999999935
sg7
I0
sg8
F4.0
saa(lp592
(dp593
g5
F-1.5
sg6
F-41.99999999999946
sg7
I0
sg8
F4.0
sa(dp594
g5
F-1.5
sg6
F-50.99999999999935
sg7
I0
sg8
F4.0
saa(lp595
(dp596
g5
F-1.5
sg6
F-41.59999999999946
sg7
I0
sg8
F4.0
sa(dp597
g5
F-1.5
sg6
F-50.599999999999355
sg7
I0
sg8
F4.0
saa(lp598
(dp599
g5
F-1.5
sg6
F-41.19999999999946
sg7
I0
sg8
F4.0
sa(dp600
g5
F-1.5
sg6
F-50.199999999999356
sg7
I0
sg8
F4.0
saa(lp601
(dp602
g5
F-1.5
sg6
F-40.799999999999464
sg7
I0
sg8
F4.0
sa(dp603
g5
F-1.5
sg6
F-49.79999999999936
sg7
I0
sg8
F4.0
saa(lp604
(dp605
g5
F-1.5
sg6
F-40.399999999999466
sg7
I0
sg8
F4.0
sa(dp606
g5
F-1.5
sg6
F-49.39999999999936
sg7
I0
sg8
F4.0
saa(lp607
(dp608
g5
F-1.5
sg6
F-39.99999999999947
sg7
I0
sg8
F4.0
sa(dp609
g5
F-1.5
sg6
F-48.99999999999936
sg7
I0
sg8
F4.0
saa(lp610
(dp611
g5
F-1.5
sg6
F-39.59999999999947
sg7
I0
sg8
F4.0
sa(dp612
g5
F-1.5
sg6
F-48.59999999999936
sg7
I0
sg8
F4.0
saa(lp613
(dp614
g5
F-1.5
sg6
F-39.19999999999947
sg7
I0
sg8
F4.0
sa(dp615
g5
F-1.5
sg6
F-48.19999999999936
sg7
I0
sg8
F4.0
saa(lp616
(dp617
g5
F-1.5
sg6
F-38.79999999999947
sg7
I0
sg8
F4.0
sa(dp618
g5
F-1.5
sg6
F-47.799999999999365
sg7
I0
sg8
F4.0
saa(lp619
(dp620
g5
F-1.5
sg6
F-38.39999999999947
sg7
I0
sg8
F4.0
sa(dp621
g5
F-1.5
sg6
F-47.399999999999366
sg7
I0
sg8
F4.0
saa(lp622
(dp623
g5
F-1.5
sg6
F-37.999999999999474
sg7
I0
sg8
F4.0
sa(dp624
g5
F-1.5
sg6
F-46.99999999999937
sg7
I0
sg8
F4.0
saa(lp625
(dp626
g5
F-1.5
sg6
F-37.599999999999476
sg7
I0
sg8
F4.0
sa(dp627
g5
F-1.5
sg6
F-46.59999999999937
sg7
I0
sg8
F4.0
saa(lp628
(dp629
g5
F-1.5
sg6
F-37.19999999999948
sg7
I0
sg8
F4.0
sa(dp630
g5
F-1.5
sg6
F-46.19999999999937
sg7
I0
sg8
F4.0
saa(lp631
(dp632
g5
F-1.5
sg6
F-36.79999999999948
sg7
I0
sg8
F4.0
sa(dp633
g5
F-1.5
sg6
F-45.79999999999937
sg7
I0
sg8
F4.0
saa(lp634
(dp635
g5
F-1.5
sg6
F-36.39999999999948
sg7
I0
sg8
F4.0
sa(dp636
g5
F-1.5
sg6
F-45.39999999999937
sg7
I0
sg8
F4.0
saa(lp637
(dp638
g5
F-1.5
sg6
F-35.99999999999948
sg7
I0
sg8
F4.0
sa(dp639
g5
F-1.5
sg6
F-44.999999999999375
sg7
I0
sg8
F4.0
saa(lp640
(dp641
g5
F-1.5
sg6
F-35.59999999999948
sg7
I0
sg8
F4.0
sa(dp642
g5
F-1.5
sg6
F-44.599999999999376
sg7
I0
sg8
F4.0
saa(lp643
(dp644
g5
F-1.5
sg6
F-35.199999999999484
sg7
I0
sg8
F4.0
sa(dp645
g5
F-1.5
sg6
F-44.19999999999938
sg7
I0
sg8
F4.0
saa(lp646
(dp647
g5
F-1.5
sg6
F-34.799999999999486
sg7
I0
sg8
F4.0
sa(dp648
g5
F-1.5
sg6
F-43.79999999999938
sg7
I0
sg8
F4.0
saa(lp649
(dp650
g5
F-1.5
sg6
F-34.39999999999949
sg7
I0
sg8
F4.0
sa(dp651
g5
F-1.5
sg6
F-43.39999999999938
sg7
I0
sg8
F4.0
saa(lp652
(dp653
g5
F-1.5
sg6
F-33.99999999999949
sg7
I0
sg8
F4.0
sa(dp654
g5
F-1.5
sg6
F-42.99999999999938
sg7
I0
sg8
F4.0
saa(lp655
(dp656
g5
F-1.5
sg6
F-33.59999999999949
sg7
I0
sg8
F4.0
sa(dp657
g5
F-1.5
sg6
F-42.59999999999938
sg7
I0
sg8
F4.0
saa(lp658
(dp659
g5
F-1.5
sg6
F-33.19999999999949
sg7
I0
sg8
F4.0
sa(dp660
g5
F-1.5
sg6
F-42.199999999999385
sg7
I0
sg8
F4.0
saa(lp661
(dp662
g5
F-1.5
sg6
F-32.79999999999949
sg7
I0
sg8
F4.0
sa(dp663
g5
F-1.5
sg6
F-41.799999999999386
sg7
I0
sg8
F4.0
saa(lp664
(dp665
g5
F-1.5
sg6
F-32.399999999999494
sg7
I0
sg8
F4.0
sa(dp666
g5
F-1.5
sg6
F-41.39999999999939
sg7
I0
sg8
F4.0
saa(lp667
(dp668
g5
F-1.5
sg6
F-31.999999999999496
sg7
I0
sg8
F4.0
sa(dp669
g5
F-1.5
sg6
F-40.99999999999939
sg7
I0
sg8
F4.0
saa(lp670
(dp671
g5
F-1.5
sg6
F-31.599999999999497
sg7
I0
sg8
F4.0
sa(dp672
g5
F-1.5
sg6
F-40.59999999999939
sg7
I0
sg8
F4.0
saa(lp673
(dp674
g5
F-1.5
sg6
F-31.1999999999995
sg7
I0
sg8
F4.0
sa(dp675
g5
F-1.5
sg6
F-40.19999999999939
sg7
I0
sg8
F4.0
saa(lp676
(dp677
g5
F-1.5
sg6
F-30.7999999999995
sg7
I0
sg8
F4.0
sa(dp678
g5
F-1.5
sg6
F-39.79999999999939
sg7
I0
sg8
F4.0
saa(lp679
(dp680
g5
F-1.5
sg6
F-30.3999999999995
sg7
I0
sg8
F4.0
sa(dp681
g5
F-1.5
sg6
F-39.399999999999395
sg7
I0
sg8
F4.0
saa(lp682
(dp683
g5
F-1.5
sg6
F-29.999999999999503
sg7
I0
sg8
F4.0
sa(dp684
g5
F-1.5
sg6
F-38.999999999999396
sg7
I0
sg8
F4.0
saa(lp685
(dp686
g5
F-1.5
sg6
F-29.599999999999504
sg7
I0
sg8
F4.0
sa(dp687
g5
F-1.5
sg6
F-38.5999999999994
sg7
I0
sg8
F4.0
saa(lp688
(dp689
g5
F-1.5
sg6
F-29.199999999999505
sg7
I0
sg8
F4.0
sa(dp690
g5
F-1.5
sg6
F-38.1999999999994
sg7
I0
sg8
F4.0
saa(lp691
(dp692
g5
F-1.5
sg6
F-28.799999999999507
sg7
I0
sg8
F4.0
sa(dp693
g5
F-1.5
sg6
F-37.7999999999994
sg7
I0
sg8
F4.0
saa(lp694
(dp695
g5
F-1.5
sg6
F-28.39999999999951
sg7
I0
sg8
F4.0
sa(dp696
g5
F-1.5
sg6
F-37.3999999999994
sg7
I0
sg8
F4.0
saa(lp697
(dp698
g5
F-1.5
sg6
F-27.99999999999951
sg7
I0
sg8
F4.0
sa(dp699
g5
F-1.5
sg6
F-36.9999999999994
sg7
I0
sg8
F4.0
saa(lp700
(dp701
g5
F-1.5
sg6
F-27.59999999999951
sg7
I0
sg8
F4.0
sa(dp702
g5
F-1.5
sg6
F-36.599999999999405
sg7
I0
sg8
F4.0
saa(lp703
(dp704
g5
F-1.5
sg6
F-27.199999999999513
sg7
I0
sg8
F4.0
sa(dp705
g5
F-1.5
sg6
F-36.199999999999406
sg7
I0
sg8
F4.0
saa(lp706
(dp707
g5
F-1.5
sg6
F-26.799999999999514
sg7
I0
sg8
F4.0
sa(dp708
g5
F-1.5
sg6
F-35.79999999999941
sg7
I0
sg8
F4.0
saa(lp709
(dp710
g5
F-1.5
sg6
F-26.399999999999515
sg7
I0
sg8
F4.0
sa(dp711
g5
F-1.5
sg6
F-35.39999999999941
sg7
I0
sg8
F4.0
saa(lp712
(dp713
g5
F-1.5
sg6
F-25.999999999999517
sg7
I0
sg8
F4.0
sa(dp714
g5
F-1.5
sg6
F-34.99999999999941
sg7
I0
sg8
F4.0
saa(lp715
(dp716
g5
F-1.5
sg6
F-25.59999999999952
sg7
I0
sg8
F4.0
sa(dp717
g5
F-1.5
sg6
F-34.59999999999941
sg7
I0
sg8
F4.0
saa(lp718
(dp719
g5
F-1.5
sg6
F-25.19999999999952
sg7
I0
sg8
F4.0
sa(dp720
g5
F-1.5
sg6
F-34.19999999999941
sg7
I0
sg8
F4.0
saa(lp721
(dp722
g5
F-1.5
sg6
F-24.79999999999952
sg7
I0
sg8
F4.0
sa(dp723
g5
F-1.5
sg6
F-33.799999999999415
sg7
I0
sg8
F4.0
saa(lp724
(dp725
g5
F-1.5
sg6
F-24.399999999999523
sg7
I0
sg8
F4.0
sa(dp726
g5
F-1.5
sg6
F-33.399999999999416
sg7
I0
sg8
F4.0
saa(lp727
(dp728
g5
F-1.5
sg6
F-23.999999999999524
sg7
I0
sg8
F4.0
sa(dp729
g5
F-1.5
sg6
F-32.99999999999942
sg7
I0
sg8
F4.0
saa(lp730
(dp731
g5
F-1.5
sg6
F-23.599999999999525
sg7
I0
sg8
F4.0
sa(dp732
g5
F-1.5
sg6
F-32.59999999999942
sg7
I0
sg8
F4.0
saa(lp733
(dp734
g5
F-1.5
sg6
F-23.199999999999527
sg7
I0
sg8
F4.0
sa(dp735
g5
F-1.5
sg6
F-32.19999999999942
sg7
I0
sg8
F4.0
saa(lp736
(dp737
g5
F-1.5
sg6
F-22.799999999999528
sg7
I0
sg8
F4.0
sa(dp738
g5
F-1.5
sg6
F-31.79999999999942
sg7
I0
sg8
F4.0
saa(lp739
(dp740
g5
F-1.5
sg6
F-22.39999999999953
sg7
I0
sg8
F4.0
sa(dp741
g5
F-1.5
sg6
F-31.399999999999423
sg7
I0
sg8
F4.0
saa(lp742
(dp743
g5
F-1.5
sg6
F-21.99999999999953
sg7
I0
sg8
F4.0
sa(dp744
g5
F-1.5
sg6
F-30.999999999999424
sg7
I0
sg8
F4.0
saa(lp745
(dp746
g5
F-1.5
sg6
F-21.599999999999532
sg7
I0
sg8
F4.0
sa(dp747
g5
F-1.5
sg6
F-30.599999999999426
sg7
I0
sg8
F4.0
saa(lp748
(dp749
g5
F-1.5
sg6
F-21.199999999999534
sg7
I0
sg8
F4.0
sa(dp750
g5
F-1.5
sg6
F-30.199999999999427
sg7
I0
sg8
F4.0
saa(lp751
(dp752
g5
F-1.5
sg6
F-20.799999999999535
sg7
I0
sg8
F4.0
sa(dp753
g5
F-1.5
sg6
F-29.79999999999943
sg7
I0
sg8
F4.0
saa(lp754
(dp755
g5
F-1.5
sg6
F-20.399999999999537
sg7
I0
sg8
F4.0
sa(dp756
g5
F-1.5
sg6
F-29.39999999999943
sg7
I0
sg8
F4.0
saa(lp757
(dp758
g5
F-1.5
sg6
F-19.999999999999538
sg7
I0
sg8
F4.0
sa(dp759
g5
F-1.5
sg6
F-28.99999999999943
sg7
I0
sg8
F4.0
saa(lp760
(dp761
g5
F-1.5
sg6
F-19.59999999999954
sg7
I0
sg8
F4.0
sa(dp762
g5
F-1.5
sg6
F-28.599999999999433
sg7
I0
sg8
F4.0
saa(lp763
(dp764
g5
F-1.5
sg6
F-19.19999999999954
sg7
I0
sg8
F4.0
sa(dp765
g5
F-1.5
sg6
F-28.199999999999434
sg7
I0
sg8
F4.0
saa(lp766
(dp767
g5
F-1.5
sg6
F-18.799999999999542
sg7
I0
sg8
F4.0
sa(dp768
g5
F-1.5
sg6
F-27.799999999999436
sg7
I0
sg8
F4.0
saa(lp769
(dp770
g5
F-1.5
sg6
F-18.399999999999544
sg7
I0
sg8
F4.0
sa(dp771
g5
F-1.5
sg6
F-27.399999999999437
sg7
I0
sg8
F4.0
saa(lp772
(dp773
g5
F-1.5
sg6
F-17.999999999999545
sg7
I0
sg8
F4.0
sa(dp774
g5
F-1.5
sg6
F-26.99999999999944
sg7
I0
sg8
F4.0
saa(lp775
(dp776
g5
F-1.5
sg6
F-17.599999999999547
sg7
I0
sg8
F4.0
sa(dp777
g5
F-1.5
sg6
F-26.59999999999944
sg7
I0
sg8
F4.0
saa(lp778
(dp779
g5
F-1.5
sg6
F-17.199999999999548
sg7
I0
sg8
F4.0
sa(dp780
g5
F-1.5
sg6
F-26.19999999999944
sg7
I0
sg8
F4.0
saa(lp781
(dp782
g5
F-1.5
sg6
F-16.79999999999955
sg7
I0
sg8
F4.0
sa(dp783
g5
F-1.5
sg6
F-25.799999999999443
sg7
I0
sg8
F4.0
saa(lp784
(dp785
g5
F-1.5
sg6
F-16.39999999999955
sg7
I0
sg8
F4.0
sa(dp786
g5
F-1.5
sg6
F-25.399999999999444
sg7
I0
sg8
F4.0
saa(lp787
(dp788
g5
F-1.5
sg6
F-15.99999999999955
sg7
I0
sg8
F4.0
sa(dp789
g5
F-1.5
sg6
F-24.999999999999446
sg7
I0
sg8
F4.0
saa(lp790
(dp791
g5
F-1.5
sg6
F-15.59999999999955
sg7
I0
sg8
F4.0
sa(dp792
g5
F-1.5
sg6
F-24.599999999999447
sg7
I0
sg8
F4.0
saa(lp793
(dp794
g5
F-1.5
sg6
F-15.19999999999955
sg7
I0
sg8
F4.0
sa(dp795
g5
F-1.5
sg6
F-24.19999999999945
sg7
I0
sg8
F4.0
saa(lp796
(dp797
g5
F-1.5
sg6
F-14.79999999999955
sg7
I0
sg8
F4.0
sa(dp798
g5
F-1.5
sg6
F-23.79999999999945
sg7
I0
sg8
F4.0
saa(lp799
(dp800
g5
F-1.5
sg6
F-14.39999999999955
sg7
I0
sg8
F4.0
sa(dp801
g5
F-1.5
sg6
F-23.39999999999945
sg7
I0
sg8
F4.0
saa(lp802
(dp803
g5
F-1.5
sg6
F-13.999999999999549
sg7
I0
sg8
F4.0
sa(dp804
g5
F-1.5
sg6
F-22.999999999999453
sg7
I0
sg8
F4.0
saa(lp805
(dp806
g5
F-1.5
sg6
F-13.599999999999548
sg7
I0
sg8
F4.0
sa(dp807
g5
F-1.5
sg6
F-22.599999999999454
sg7
I0
sg8
F4.0
saa(lp808
(dp809
g5
F-1.5
sg6
F-13.199999999999548
sg7
I0
sg8
F4.0
sa(dp810
g5
F-1.5
sg6
F-22.199999999999456
sg7
I0
sg8
F4.0
saa(lp811
(dp812
g5
F-1.5
sg6
F-12.799999999999548
sg7
I0
sg8
F4.0
sa(dp813
g5
F-1.5
sg6
F-21.799999999999457
sg7
I0
sg8
F4.0
saa(lp814
(dp815
g5
F-1.5
sg6
F-12.399999999999547
sg7
I0
sg8
F4.0
sa(dp816
g5
F-1.5
sg6
F-21.39999999999946
sg7
I0
sg8
F4.0
saa(lp817
(dp818
g5
F-1.5
sg6
F-11.999999999999547
sg7
I0
sg8
F4.0
sa(dp819
g5
F-1.5
sg6
F-20.99999999999946
sg7
I0
sg8
F4.0
saa(lp820
(dp821
g5
F-1.5
sg6
F-11.599999999999547
sg7
I0
sg8
F4.0
sa(dp822
g5
F-1.5
sg6
F-20.59999999999946
sg7
I0
sg8
F4.0
saa(lp823
(dp824
g5
F-1.5
sg6
F-11.199999999999546
sg7
I0
sg8
F4.0
sa(dp825
g5
F-1.5
sg6
F-20.199999999999463
sg7
I0
sg8
F4.0
saa(lp826
(dp827
g5
F-1.5
sg6
F-10.799999999999546
sg7
I0
sg8
F4.0
sa(dp828
g5
F-1.5
sg6
F-19.799999999999464
sg7
I0
sg8
F4.0
saa(lp829
(dp830
g5
F-1.5
sg6
F-10.399999999999546
sg7
I0
sg8
F4.0
sa(dp831
g5
F-1.5
sg6
F-19.399999999999466
sg7
I0
sg8
F4.0
saa(lp832
(dp833
g5
F-1.5
sg6
F-9.999999999999545
sg7
I0
sg8
F4.0
sa(dp834
g5
F-1.5
sg6
F-18.999999999999467
sg7
I0
sg8
F4.0
saa(lp835
(dp836
g5
F-1.5
sg6
F-9.599999999999545
sg7
I0
sg8
F4.0
sa(dp837
g5
F-1.5
sg6
F-18.59999999999947
sg7
I0
sg8
F4.0
saa(lp838
(dp839
g5
F-1.5
sg6
F-9.199999999999545
sg7
I0
sg8
F4.0
sa(dp840
g5
F-1.5
sg6
F-18.19999999999947
sg7
I0
sg8
F4.0
saa(lp841
(dp842
g5
F-1.5
sg6
F-8.799999999999544
sg7
I0
sg8
F4.0
sa(dp843
g5
F-1.5
sg6
F-17.79999999999947
sg7
I0
sg8
F4.0
saa(lp844
(dp845
g5
F-1.5
sg6
F-8.399999999999544
sg7
I0
sg8
F4.0
sa(dp846
g5
F-1.5
sg6
F-17.399999999999473
sg7
I0
sg8
F4.0
saa(lp847
(dp848
g5
F-1.5
sg6
F-7.9999999999995435
sg7
I0
sg8
F4.0
sa(dp849
g5
F-1.5
sg6
F-16.999999999999474
sg7
I0
sg8
F4.0
saa(lp850
(dp851
g5
F-1.5
sg6
F-7.599999999999543
sg7
I0
sg8
F4.0
sa(dp852
g5
F-1.5
sg6
F-16.599999999999476
sg7
I0
sg8
F4.0
saa(lp853
(dp854
g5
F-1.5
sg6
F-7.199999999999543
sg7
I0
sg8
F4.0
sa(dp855
g5
F-1.5
sg6
F-16.199999999999477
sg7
I0
sg8
F4.0
saa(lp856
(dp857
g5
F-1.5
sg6
F-6.799999999999542
sg7
I0
sg8
F4.0
sa(dp858
g5
F-1.5
sg6
F-15.799999999999477
sg7
I0
sg8
F4.0
saa(lp859
(dp860
g5
F-1.5
sg6
F-6.399999999999542
sg7
I0
sg8
F4.0
sa(dp861
g5
F-1.5
sg6
F-15.399999999999476
sg7
I0
sg8
F4.0
saa(lp862
(dp863
g5
F-1.5
sg6
F-5.999999999999542
sg7
I0
sg8
F4.0
sa(dp864
g5
F-1.5
sg6
F-14.999999999999476
sg7
I0
sg8
F4.0
saa(lp865
(dp866
g5
F-1.5
sg6
F-5.599999999999541
sg7
I0
sg8
F4.0
sa(dp867
g5
F-1.5
sg6
F-14.599999999999476
sg7
I0
sg8
F4.0
saa(lp868
(dp869
g5
F-1.5
sg6
F-5.199999999999541
sg7
I0
sg8
F4.0
sa(dp870
g5
F-1.5
sg6
F-14.199999999999475
sg7
I0
sg8
F4.0
saa(lp871
(dp872
g5
F-1.5
sg6
F-4.799999999999541
sg7
I0
sg8
F4.0
sa(dp873
g5
F-1.5
sg6
F-13.799999999999475
sg7
I0
sg8
F4.0
saa(lp874
(dp875
g5
F-1.5
sg6
F-4.39999999999954
sg7
I0
sg8
F4.0
sa(dp876
g5
F-1.5
sg6
F-13.399999999999475
sg7
I0
sg8
F4.0
saa(lp877
(dp878
g5
F-1.5
sg6
F-3.9999999999995404
sg7
I0
sg8
F4.0
sa(dp879
g5
F-1.5
sg6
F-12.999999999999474
sg7
I0
sg8
F4.0
saa(lp880
(dp881
g5
F-1.5
sg6
F-3.5999999999995405
sg7
I0
sg8
F4.0
sa(dp882
g5
F-1.5
sg6
F-12.599999999999474
sg7
I0
sg8
F4.0
saa(lp883
(dp884
g5
F-1.5
sg6
F-3.1999999999995405
sg7
I0
sg8
F4.0
sa(dp885
g5
F-1.5
sg6
F-12.199999999999473
sg7
I0
sg8
F4.0
saa(lp886
(dp887
g5
F-1.5
sg6
F-2.7999999999995406
sg7
I0
sg8
F4.0
sa(dp888
g5
F-1.5
sg6
F-11.799999999999473
sg7
I0
sg8
F4.0
saa(lp889
(dp890
g5
F-1.5
sg6
F-2.3999999999995407
sg7
I0
sg8
F4.0
sa(dp891
g5
F-1.5
sg6
F-11.399999999999473
sg7
I0
sg8
F4.0
saa(lp892
(dp893
g5
F-1.5
sg6
F-1.9999999999995408
sg7
I0
sg8
F4.0
sa(dp894
g5
F-1.5
sg6
F-10.999999999999472
sg7
I0
sg8
F4.0
saa(lp895
(dp896
g5
F-1.5
sg6
F-1.599999999999541
sg7
I0
sg8
F4.0
sa(dp897
g5
F-1.5
sg6
F-10.599999999999472
sg7
I0
sg8
F4.0
saa(lp898
(dp899
g5
F-1.5
sg6
F-1.199999999999541
sg7
I0
sg8
F4.0
sa(dp900
g5
F-1.5
sg6
F-10.199999999999472
sg7
I0
sg8
F4.0
saa(lp901
(dp902
g5
F-1.5
sg6
F-0.799999999999541
sg7
I0
sg8
F4.0
sa(dp903
g5
F-1.5
sg6
F-9.799999999999471
sg7
I0
sg8
F4.0
saa(lp904
(dp905
g5
F-1.5
sg6
F-0.39999999999954094
sg7
I0
sg8
F4.0
sa(dp906
g5
F-1.5
sg6
F-9.399999999999471
sg7
I0
sg8
F4.0
saa(lp907
(dp908
g5
F-1.5
sg6
F4.590772206825022e-13
sg7
I0
sg8
F4.0
sa(dp909
g5
F-1.5
sg6
F-8.99999999999947
sg7
I0
sg8
F4.0
saa(lp910
(dp911
g5
F-1.5
sg6
F0.4000000000004591
sg7
I0
sg8
F4.0
sa(dp912
g5
F-1.5
sg6
F-8.59999999999947
sg7
I0
sg8
F4.0
saa(lp913
(dp914
g5
F-1.5
sg6
F0.8000000000004591
sg7
I0
sg8
F4.0
sa(dp915
g5
F-1.5
sg6
F-8.19999999999947
sg7
I0
sg8
F4.0
saa(lp916
(dp917
g5
F-1.5
sg6
F1.2000000000004591
sg7
I0
sg8
F4.0
sa(dp918
g5
F-1.5
sg6
F-7.79999999999947
sg7
I0
sg8
F4.0
saa(lp919
(dp920
g5
F-1.5
sg6
F1.6000000000004593
sg7
I0
sg8
F4.0
sa(dp921
g5
F-1.5
sg6
F-7.399999999999469
sg7
I0
sg8
F4.0
saa(lp922
(dp923
g5
F-1.5
sg6
F2.000000000000459
sg7
I0
sg8
F4.0
sa(dp924
g5
F-1.5
sg6
F-6.999999999999469
sg7
I0
sg8
F4.0
saa(lp925
(dp926
g5
F-1.5
sg6
F2.400000000000459
sg7
I0
sg8
F4.0
sa(dp927
g5
F-1.5
sg6
F-6.5999999999994685
sg7
I0
sg8
F4.0
saa(lp928
(dp929
g5
F-1.5
sg6
F2.800000000000459
sg7
I0
sg8
F4.0
sa(dp930
g5
F-1.5
sg6
F-6.199999999999468
sg7
I0
sg8
F4.0
saa(lp931
(dp932
g5
F-1.5
sg6
F3.200000000000459
sg7
I0
sg8
F4.0
sa(dp933
g5
F-1.5
sg6
F-5.799999999999468
sg7
I0
sg8
F4.0
saa(lp934
(dp935
g5
F-1.5
sg6
F3.600000000000459
sg7
I0
sg8
F4.0
sa(dp936
g5
F-1.5
sg6
F-5.3999999999994674
sg7
I0
sg8
F4.0
saa(lp937
(dp938
g5
F-1.5
sg6
F4.000000000000459
sg7
I0
sg8
F4.0
sa(dp939
g5
F-1.5
sg6
F-4.999999999999467
sg7
I0
sg8
F4.0
saa(lp940
(dp941
g5
F-1.5
sg6
F4.4000000000004595
sg7
I0
sg8
F4.0
sa(dp942
g5
F-1.5
sg6
F-4.599999999999467
sg7
I0
sg8
F4.0
saa(lp943
(dp944
g5
F-1.5
sg6
F4.80000000000046
sg7
I0
sg8
F4.0
sa(dp945
g5
F-1.5
sg6
F-4.199999999999466
sg7
I0
sg8
F4.0
saa(lp946
(dp947
g5
F-1.5
sg6
F5.20000000000046
sg7
I0
sg8
F4.0
sa(dp948
g5
F-1.5
sg6
F-3.7999999999994665
sg7
I0
sg8
F4.0
saa(lp949
(dp950
g5
F-1.5
sg6
F5.600000000000461
sg7
I0
sg8
F4.0
sa(dp951
g5
F-1.5
sg6
F-3.3999999999994666
sg7
I0
sg8
F4.0
saa(lp952
(dp953
g5
F-1.5
sg6
F6.000000000000461
sg7
I0
sg8
F4.0
sa(dp954
g5
F-1.5
sg6
F-2.9999999999994666
sg7
I0
sg8
F4.0
saa(lp955
(dp956
g5
F-1.5
sg6
F6.400000000000461
sg7
I0
sg8
F4.0
sa(dp957
g5
F-1.5
sg6
F-2.5999999999994667
sg7
I0
sg8
F4.0
saa(lp958
(dp959
g5
F-1.5
sg6
F6.800000000000462
sg7
I0
sg8
F4.0
sa(dp960
g5
F-1.5
sg6
F-2.199999999999467
sg7
I0
sg8
F4.0
saa(lp961
(dp962
g5
F-1.5
sg6
F7.200000000000462
sg7
I0
sg8
F4.0
sa(dp963
g5
F-1.5
sg6
F-1.799999999999467
sg7
I0
sg8
F4.0
saa(lp964
(dp965
g5
F-1.5
sg6
F7.600000000000462
sg7
I0
sg8
F4.0
sa(dp966
g5
F-1.5
sg6
F-1.399999999999467
sg7
I0
sg8
F4.0
saa(lp967
(dp968
g5
F-1.5
sg6
F8.000000000000462
sg7
I0
sg8
F4.0
sa(dp969
g5
F-1.5
sg6
F-0.999999999999467
sg7
I0
sg8
F4.0
saa(lp970
(dp971
g5
F-1.5
sg6
F8.400000000000462
sg7
I0
sg8
F4.0
sa(dp972
g5
F-1.5
sg6
F-0.599999999999467
sg7
I0
sg8
F4.0
saa(lp973
(dp974
g5
F-1.5
sg6
F8.800000000000463
sg7
I0
sg8
F4.0
sa(dp975
g5
F-1.5
sg6
F-0.19999999999946694
sg7
I0
sg8
F4.0
saa(lp976
(dp977
g5
F-1.5
sg6
F9.200000000000463
sg7
I0
sg8
F4.0
sa(dp978
g5
F-1.5
sg6
F0.20000000000053308
sg7
I0
sg8
F4.0
saa(lp979
(dp980
g5
F-1.5
sg6
F9.600000000000463
sg7
I0
sg8
F4.0
sa(dp981
g5
F-1.5
sg6
F0.6000000000005331
sg7
I0
sg8
F4.0
saa(lp982
(dp983
g5
F-1.5
sg6
F10.000000000000464
sg7
I0
sg8
F4.0
sa(dp984
g5
F-1.5
sg6
F1.0000000000005331
sg7
I0
sg8
F4.0
saa(lp985
(dp986
g5
F-1.5
sg6
F10.400000000000464
sg7
I0
sg8
F4.0
sa(dp987
g5
F-1.5
sg6
F1.4000000000005333
sg7
I0
sg8
F4.0
saa(lp988
(dp989
g5
F-1.5
sg6
F10.800000000000464
sg7
I0
sg8
F4.0
sa(dp990
g5
F-1.5
sg6
F1.8000000000005332
sg7
I0
sg8
F4.0
saa(lp991
(dp992
g5
F-1.5
sg6
F11.200000000000465
sg7
I0
sg8
F4.0
sa(dp993
g5
F-1.5
sg6
F2.200000000000533
sg7
I0
sg8
F4.0
saa(lp994
(dp995
g5
F-1.5
sg6
F11.600000000000465
sg7
I0
sg8
F4.0
sa(dp996
g5
F-1.5
sg6
F2.600000000000533
sg7
I0
sg8
F4.0
saa(lp997
(dp998
g5
F-1.5
sg6
F12.000000000000465
sg7
I0
sg8
F4.0
sa(dp999
g5
F-1.5
sg6
F3.000000000000533
sg7
I0
sg8
F4.0
saa(lp1000
(dp1001
g5
F-1.5
sg6
F12.400000000000466
sg7
I0
sg8
F4.0
sa(dp1002
g5
F-1.5
sg6
F3.400000000000533
sg7
I0
sg8
F4.0
saa(lp1003
(dp1004
g5
F-1.5
sg6
F12.800000000000466
sg7
I0
sg8
F4.0
sa(dp1005
g5
F-1.5
sg6
F3.8000000000005327
sg7
I0
sg8
F4.0
saa(lp1006
(dp1007
g5
F-1.5
sg6
F13.200000000000466
sg7
I0
sg8
F4.0
sa(dp1008
g5
F-1.5
sg6
F4.200000000000533
sg7
I0
sg8
F4.0
saa(lp1009
(dp1010
g5
F-1.5
sg6
F13.600000000000467
sg7
I0
sg8
F4.0
sa(dp1011
g5
F-1.5
sg6
F4.600000000000533
sg7
I0
sg8
F4.0
saa(lp1012
(dp1013
g5
F-1.5
sg6
F14.000000000000467
sg7
I0
sg8
F4.0
sa(dp1014
g5
F-1.5
sg6
F5.000000000000534
sg7
I0
sg8
F4.0
saa(lp1015
(dp1016
g5
F-1.5
sg6
F14.400000000000468
sg7
I0
sg8
F4.0
sa(dp1017
g5
F-1.5
sg6
F5.400000000000534
sg7
I0
sg8
F4.0
saa(lp1018
(dp1019
g5
F-1.5
sg6
F14.800000000000468
sg7
I0
sg8
F4.0
sa(dp1020
g5
F-1.5
sg6
F5.8000000000005345
sg7
I0
sg8
F4.0
saa(lp1021
(dp1022
g5
F-1.5
sg6
F15.200000000000468
sg7
I0
sg8
F4.0
sa(dp1023
g5
F-1.5
sg6
F6.200000000000535
sg7
I0
sg8
F4.0
saa(lp1024
(dp1025
g5
F-1.5
sg6
F15.600000000000469
sg7
I0
sg8
F4.0
sa(dp1026
g5
F-1.5
sg6
F6.600000000000535
sg7
I0
sg8
F4.0
saa(lp1027
(dp1028
g5
F-1.5
sg6
F16.00000000000047
sg7
I0
sg8
F4.0
sa(dp1029
g5
F-1.5
sg6
F7.000000000000536
sg7
I0
sg8
F4.0
saa(lp1030
(dp1031
g5
F-1.5
sg6
F16.400000000000468
sg7
I0
sg8
F4.0
sa(dp1032
g5
F-1.5
sg6
F7.400000000000536
sg7
I0
sg8
F4.0
saa(lp1033
(dp1034
g5
F-1.5
sg6
F16.800000000000466
sg7
I0
sg8
F4.0
sa(dp1035
g5
F-1.5
sg6
F7.800000000000536
sg7
I0
sg8
F4.0
saa(lp1036
(dp1037
g5
F-1.5
sg6
F17.200000000000465
sg7
I0
sg8
F4.0
sa(dp1038
g5
F-1.5
sg6
F8.200000000000536
sg7
I0
sg8
F4.0
saa(lp1039
(dp1040
g5
F-1.5
sg6
F17.600000000000463
sg7
I0
sg8
F4.0
sa(dp1041
g5
F-1.5
sg6
F8.600000000000536
sg7
I0
sg8
F4.0
saa(lp1042
(dp1043
g5
F-1.5
sg6
F18.000000000000462
sg7
I0
sg8
F4.0
sa(dp1044
g5
F-1.5
sg6
F9.000000000000536
sg7
I0
sg8
F4.0
saa(lp1045
(dp1046
g5
F-1.5
sg6
F18.40000000000046
sg7
I0
sg8
F4.0
sa(dp1047
g5
F-1.5
sg6
F9.400000000000537
sg7
I0
sg8
F4.0
saa(lp1048
(dp1049
g5
F-1.5
sg6
F18.80000000000046
sg7
I0
sg8
F4.0
sa(dp1050
g5
F-1.5
sg6
F9.800000000000537
sg7
I0
sg8
F4.0
saa(lp1051
(dp1052
g5
F-1.5
sg6
F19.200000000000458
sg7
I0
sg8
F4.0
sa(dp1053
g5
F-1.5
sg6
F10.200000000000538
sg7
I0
sg8
F4.0
saa(lp1054
(dp1055
g5
F-1.5
sg6
F19.600000000000456
sg7
I0
sg8
F4.0
sa(dp1056
g5
F-1.5
sg6
F10.600000000000538
sg7
I0
sg8
F4.0
saa(lp1057
(dp1058
g5
F-1.5
sg6
F20.000000000000455
sg7
I0
sg8
F4.0
sa(dp1059
g5
F-1.5
sg6
F11.000000000000538
sg7
I0
sg8
F4.0
saa(lp1060
(dp1061
g5
F-1.5
sg6
F20.400000000000453
sg7
I0
sg8
F4.0
sa(dp1062
g5
F-1.5
sg6
F11.400000000000539
sg7
I0
sg8
F4.0
saa(lp1063
(dp1064
g5
F-1.5
sg6
F20.800000000000452
sg7
I0
sg8
F4.0
sa(dp1065
g5
F-1.5
sg6
F11.800000000000539
sg7
I0
sg8
F4.0
saa(lp1066
(dp1067
g5
F-1.5
sg6
F21.20000000000045
sg7
I0
sg8
F4.0
sa(dp1068
g5
F-1.5
sg6
F12.20000000000054
sg7
I0
sg8
F4.0
saa(lp1069
(dp1070
g5
F-1.5
sg6
F21.60000000000045
sg7
I0
sg8
F4.0
sa(dp1071
g5
F-1.5
sg6
F12.60000000000054
sg7
I0
sg8
F4.0
saa(lp1072
(dp1073
g5
F-1.5
sg6
F22.000000000000448
sg7
I0
sg8
F4.0
sa(dp1074
g5
F-1.5
sg6
F13.00000000000054
sg7
I0
sg8
F4.0
saa(lp1075
(dp1076
g5
F-1.5
sg6
F22.400000000000446
sg7
I0
sg8
F4.0
sa(dp1077
g5
F-1.5
sg6
F13.40000000000054
sg7
I0
sg8
F4.0
saa(lp1078
(dp1079
g5
F-1.5
sg6
F22.800000000000445
sg7
I0
sg8
F4.0
sa(dp1080
g5
F-1.5
sg6
F13.80000000000054
sg7
I0
sg8
F4.0
saa(lp1081
(dp1082
g5
F-1.5
sg6
F23.200000000000443
sg7
I0
sg8
F4.0
sa(dp1083
g5
F-1.5
sg6
F14.200000000000541
sg7
I0
sg8
F4.0
saa(lp1084
(dp1085
g5
F-1.5
sg6
F23.600000000000442
sg7
I0
sg8
F4.0
sa(dp1086
g5
F-1.5
sg6
F14.600000000000541
sg7
I0
sg8
F4.0
saa(lp1087
(dp1088
g5
F-1.5
sg6
F24.00000000000044
sg7
I0
sg8
F4.0
sa(dp1089
g5
F-1.5
sg6
F15.000000000000542
sg7
I0
sg8
F4.0
saa(lp1090
(dp1091
g5
F-1.5
sg6
F24.40000000000044
sg7
I0
sg8
F4.0
sa(dp1092
g5
F-1.5
sg6
F15.400000000000542
sg7
I0
sg8
F4.0
saa(lp1093
(dp1094
g5
F-1.5
sg6
F24.800000000000438
sg7
I0
sg8
F4.0
sa(dp1095
g5
F-1.5
sg6
F15.800000000000542
sg7
I0
sg8
F4.0
saa(lp1096
(dp1097
g5
F-1.5
sg6
F25.200000000000436
sg7
I0
sg8
F4.0
sa(dp1098
g5
F-1.5
sg6
F16.200000000000543
sg7
I0
sg8
F4.0
saa(lp1099
(dp1100
g5
F-1.5
sg6
F25.600000000000435
sg7
I0
sg8
F4.0
sa(dp1101
g5
F-1.5
sg6
F16.60000000000054
sg7
I0
sg8
F4.0
saa(lp1102
(dp1103
g5
F-1.5
sg6
F26.000000000000433
sg7
I0
sg8
F4.0
sa(dp1104
g5
F-1.5
sg6
F17.00000000000054
sg7
I0
sg8
F4.0
saa(lp1105
(dp1106
g5
F-1.5
sg6
F26.400000000000432
sg7
I0
sg8
F4.0
sa(dp1107
g5
F-1.5
sg6
F17.40000000000054
sg7
I0
sg8
F4.0
saa(lp1108
(dp1109
g5
F-1.5
sg6
F26.80000000000043
sg7
I0
sg8
F4.0
sa(dp1110
g5
F-1.5
sg6
F17.800000000000537
sg7
I0
sg8
F4.0
saa(lp1111
(dp1112
g5
F-1.5
sg6
F27.20000000000043
sg7
I0
sg8
F4.0
sa(dp1113
g5
F-1.5
sg6
F18.200000000000536
sg7
I0
sg8
F4.0
saa(lp1114
(dp1115
g5
F-1.5
sg6
F27.600000000000428
sg7
I0
sg8
F4.0
sa(dp1116
g5
F-1.5
sg6
F18.600000000000534
sg7
I0
sg8
F4.0
saa(lp1117
(dp1118
g5
F-1.5
sg6
F28.000000000000426
sg7
I0
sg8
F4.0
sa(dp1119
g5
F-1.5
sg6
F19.000000000000533
sg7
I0
sg8
F4.0
saa(lp1120
(dp1121
g5
F-1.5
sg6
F28.400000000000425
sg7
I0
sg8
F4.0
sa(dp1122
g5
F-1.5
sg6
F19.40000000000053
sg7
I0
sg8
F4.0
saa(lp1123
(dp1124
g5
F-1.5
sg6
F28.800000000000423
sg7
I0
sg8
F4.0
sa(dp1125
g5
F-1.5
sg6
F19.80000000000053
sg7
I0
sg8
F4.0
saa(lp1126
(dp1127
g5
F-1.5
sg6
F29.200000000000422
sg7
I0
sg8
F4.0
sa(dp1128
g5
F-1.5
sg6
F20.20000000000053
sg7
I0
sg8
F4.0
saa(lp1129
(dp1130
g5
F-1.5
sg6
F29.60000000000042
sg7
I0
sg8
F4.0
sa(dp1131
g5
F-1.5
sg6
F20.600000000000527
sg7
I0
sg8
F4.0
saa(lp1132
(dp1133
g5
F-1.5
sg6
F30.00000000000042
sg7
I0
sg8
F4.0
sa(dp1134
g5
F-1.5
sg6
F21.000000000000526
sg7
I0
sg8
F4.0
saa(lp1135
(dp1136
g5
F-1.5
sg6
F30.400000000000418
sg7
I0
sg8
F4.0
sa(dp1137
g5
F-1.5
sg6
F21.400000000000524
sg7
I0
sg8
F4.0
saa(lp1138
(dp1139
g5
F-1.5
sg6
F30.800000000000416
sg7
I0
sg8
F4.0
sa(dp1140
g5
F-1.5
sg6
F21.800000000000523
sg7
I0
sg8
F4.0
saa(lp1141
(dp1142
g5
F-1.5
sg6
F31.200000000000415
sg7
I0
sg8
F4.0
sa(dp1143
g5
F-1.5
sg6
F22.20000000000052
sg7
I0
sg8
F4.0
saa(lp1144
(dp1145
g5
F-1.5
sg6
F31.600000000000414
sg7
I0
sg8
F4.0
sa(dp1146
g5
F-1.5
sg6
F22.60000000000052
sg7
I0
sg8
F4.0
saa(lp1147
(dp1148
g5
F-1.5
sg6
F32.00000000000041
sg7
I0
sg8
F4.0
sa(dp1149
g5
F-1.5
sg6
F23.00000000000052
sg7
I0
sg8
F4.0
saa(lp1150
(dp1151
g5
F-1.5
sg6
F32.40000000000041
sg7
I0
sg8
F4.0
sa(dp1152
g5
F-1.5
sg6
F23.400000000000517
sg7
I0
sg8
F4.0
saa(lp1153
(dp1154
g5
F-1.5
sg6
F32.80000000000041
sg7
I0
sg8
F4.0
sa(dp1155
g5
F-1.5
sg6
F23.800000000000516
sg7
I0
sg8
F4.0
saa(lp1156
(dp1157
g5
F-1.4971430515010171
sg6
F33.19997279022668
sg7
F0.028571428571486836
sg8
F4.0
sa(dp1158
g5
F-1.5
sg6
F24.200000000000514
sg7
I0
sg8
F4.0
saa(lp1159
(dp1160
g5
F-1.4743014538708827
sg6
F33.599265575963194
sg7
F0.08571428571434378
sg8
F4.0
sa(dp1161
g5
F-1.5
sg6
F24.600000000000513
sg7
I0
sg8
F4.0
saa(lp1162
(dp1163
g5
F-1.428692823126248
sg6
F33.99660210854625
sg7
F0.14285714285720072
sg8
F4.0
sa(dp1164
g5
F-1.5
sg6
F25.00000000000051
sg7
I0
sg8
F4.0
saa(lp1165
(dp1166
g5
F-1.3604660448886117
sg6
F34.390685315565825
sg7
F0.2000000000000577
sg8
F4.0
sa(dp1167
g5
F-1.5
sg6
F25.00000000000051
sg7
I0
sg8
F4.0
saa(lp1168
(dp1169
g5
F-1.2698438398604974
sg6
F34.78022874482547
sg7
F0.25714285714291457
sg8
F4.0
sa(dp1170
g5
F-1.5
sg6
F25.40000000000051
sg7
I0
sg8
F4.0
saa(lp1171
(dp1172
g5
F-1.1571220367720576
sg6
F35.163960763859606
sg7
F0.3142857142857715
sg8
F4.0
sa(dp1173
g5
F-1.5
sg6
F25.80000000000051
sg7
I0
sg8
F4.0
saa(lp1174
(dp1175
g5
F-1.0226686066725232
sg6
F35.540628711073055
sg7
F0.37142857142862845
sg8
F4.0
sa(dp1176
g5
F-1.5
sg6
F26.200000000000507
sg7
I0
sg8
F4.0
saa(lp1177
(dp1178
g5
F-0.8669224617190014
sg6
F35.90900298495173
sg7
F0.4285714285714854
sg8
F4.0
sa(dp1179
g5
F-1.5
sg6
F26.600000000000506
sg7
I0
sg8
F4.0
saa(lp1180
(dp1181
g5
F-0.6903920223838593
sg6
F36.267881057995574
sg7
F0.4857142857143424
sg8
F4.0
sa(dp1182
g5
F-1.5
sg6
F27.000000000000504
sg7
I0
sg8
F4.0
saa(lp1183
(dp1184
g5
F-0.49365355775793773
sg6
F36.616091402270634
sg7
F0.5428571428571993
sg8
F4.0
sa(dp1185
g5
F-1.5
sg6
F27.400000000000503
sg7
I0
sg8
F4.0
saa(lp1186
(dp1187
g5
F-0.2773493043675259
sg6
F36.95249731376557
sg7
F0.6000000000000563
sg8
F4.0
sa(dp1188
g5
F-1.5
sg6
F27.8000000000005
sg7
I0
sg8
F4.0
saa(lp1189
(dp1190
g5
F-0.042185369646079884
sg6
F37.276000623068356
sg7
F0.6571428571429132
sg8
F4.0
sa(dp1191
g5
F-1.5
sg6
F28.2000000000005
sg7
I0
sg8
F4.0
saa(lp1192
(dp1193
g5
F0.21107057309537947
sg6
F37.585545280249924
sg7
F0.71428571428577
sg8
F4.0
sa(dp1194
g5
F-1.5
sg6
F28.6000000000005
sg7
I0
sg8
F4.0
saa(lp1195
(dp1196
g5
F0.4815917906746172
sg6
F37.8801208022523
sg7
F0.7714285714286271
sg8
F4.0
sa(dp1197
g5
F-1.5
sg6
F29.000000000000497
sg7
I0
sg8
F4.0
saa(lp1198
(dp1199
g5
F0.7684951888406104
sg6
F38.15876557152731
sg7
F0.828571428571484
sg8
F4.0
sa(dp1200
g5
F-1.5
sg6
F29.400000000000496
sg7
I0
sg8
F4.0
saa(lp1201
(dp1202
g5
F1.07084419506206
sg6
F38.42056997515802
sg7
F0.885714285714341
sg8
F4.0
sa(dp1203
g5
F-1.5
sg6
F29.800000000000495
sg7
I0
sg8
F4.0
saa(lp1204
(dp1205
g5
F1.3876518158913314
sg6
F38.66467937421511
sg7
F0.9428571428571979
sg8
F4.0
sa(dp1206
g5
F-1.5
sg6
F30.200000000000493
sg7
I0
sg8
F4.0
saa(lp1207
(dp1208
g5
F1.717883858923345
sg6
F38.89029689365548
sg7
F1.0000000000000548
sg8
F4.0
sa(dp1209
g5
F-1.5
sg6
F30.60000000000049
sg7
I0
sg8
F4.0
saa(lp1210
(dp1211
g5
F2.0604623088315606
sg6
F39.096686023655124
sg7
F1.0571428571429118
sg8
F4.0
sa(dp1212
g5
F-1.5
sg6
F31.00000000000049
sg7
I0
sg8
F4.0
saa(lp1213
(dp1214
g5
F2.4142688464602946
sg6
F39.28317302388487
sg7
F1.1142857142857687
sg8
F4.0
sa(dp1215
g5
F-1.5
sg6
F31.40000000000049
sg7
I0
sg8
F4.0
saa(lp1216
(dp1217
g5
F2.778148499485566
sg6
F39.44914912288027
sg7
F1.1714285714286257
sg8
F4.0
sa(dp1218
g5
F-1.5
sg6
F31.800000000000487
sg7
I0
sg8
F4.0
saa(lp1219
(dp1220
g5
F3.1509134127271956
sg6
F39.594072505325904
sg7
F1.2285714285714826
sg8
F4.0
sa(dp1221
g5
F-1.5
sg6
F32.200000000000486
sg7
I0
sg8
F4.0
saa(lp1222
(dp1223
g5
F3.5313467258042786
sg6
F39.7174700807669
sg7
F1.2857142857143395
sg8
F4.0
sa(dp1224
g5
F-1.5
sg6
F32.600000000000485
sg7
I0
sg8
F4.0
saa(lp1225
(dp1226
g5
F3.918206545475754
sg6
F39.8189390279738
sg7
F1.3428571428571965
sg8
F4.0
sa(dp1227
g5
F-1.5
sg6
F33.00000000000048
sg7
F6.90241514738383e-14
sg8
F4.0
saa(lp1228
(dp1229
g5
F4.310229999698682
sg6
F39.89814810991928
sg7
F1.4000000000000534
sg8
F4.0
sa(dp1230
g5
F-1.488574538048292
sg6
F33.39978234846364
sg7
F0.05714285714292597
sg8
F4.0
saa(lp1231
(dp1232
g5
F4.706137360170094
sg6
F39.95483875507422
sg7
F1.4571428571429104
sg8
F4.0
sa(dp1233
g5
F-1.4543354496734553
sg6
F33.79825964035212
sg7
F0.11428571428578291
sg8
F4.0
saa(lp1234
(dp1235
g5
F5.104636219894716
sg6
F39.9888259014931
sg7
F1.5142857142857673
sg8
F4.0
sa(dp1236
g5
F-1.3973945055616284
sg6
F34.19413107934106
sg7
F0.17142857142863985
sg8
F4.0
saa(lp1237
(dp1238
g5
F5.504425712436095
sg6
F40.0
sg7
F1.5707963267948966
sg8
F4.0
sa(dp1239
g5
F-1.3179375847386527
sg6
F34.586104375697914
sg7
F0.22857142857149676
sg8
F4.0
saa(lp1240
(dp1241
g5
F5.904425712436094
sg6
F40.0
sg7
F1.5707963267948966
sg8
F4.0
sa(dp1242
g5
F-1.216224067783287
sg6
F34.97289996485593
sg7
F0.2857142857143537
sg8
F4.0
saa(lp1243
(dp1244
g5
F6.3044257124360925
sg6
F40.0
sg7
F1.5707963267948966
sg8
F4.0
sa(dp1245
g5
F-1.0925859901006598
sg6
F35.353255184447384
sg7
F0.34285714285721064
sg8
F4.0
saa(lp1246
(dp1247
g5
F6.704425712436091
sg6
F40.0
sg7
F1.5707963267948966
sg8
F4.0
sa(dp1248
g5
F-0.9474269580200119
sg6
F35.72592839616099
sg7
F0.4000000000000676
sg8
F4.0
saa(lp1249
(dp1250
g5
F7.10442571243609
sg6
F40.0
sg7
F1.5707963267948966
sg8
F4.0
sa(dp1251
g5
F-0.7812208312550499
sg6
F36.089703038967926
sg7
F0.4571428571429246
sg8
F4.0
saa(lp1252
(dp1253
g5
F7.504425712436088
sg6
F40.0
sg7
F1.5707963267948966
sg8
F4.0
sa(dp1254
g5
F-0.5945101760279146
sg6
F36.44339160048522
sg7
F0.5142857142857815
sg8
F4.0
saa(lp1255
(dp1256
g5
F7.904425712436087
sg6
F40.0
sg7
F1.5707963267948966
sg8
F4.0
sa(dp1257
g5
F-0.38790449390639914
sg6
F36.78583949351221
sg7
F0.5714285714286385
sg8
F4.0
saa(lp1258
(dp1259
g5
F8.304425712436085
sg6
F40.0
sg7
F1.5707963267948966
sg8
F4.0
sa(dp1260
g5
F-0.1620782321362393
sg6
F37.11592882508541
sg7
F0.6285714285714954
sg8
F4.0
saa(lp1261
(dp1262
g5
F8.704425712436084
sg6
F40.0
sg7
F1.5707963267948966
sg8
F4.0
sa(dp1263
g5
F0.08223141803640832
sg6
F37.43258204574808
sg7
F0.6857142857143522
sg8
F4.0
saa(lp1264
(dp1265
g5
F9.104425712436083
sg6
F40.0
sg7
F1.5707963267948966
sg8
F4.0
sa(dp1266
g5
F0.3442269278651242
sg6
F37.734765467121775
sg7
F0.7428571428572093
sg8
F4.0
saa(lp1267
(dp1268
g5
F9.504425712436081
sg6
F40.0
sg7
F1.5707963267948966
sg8
F4.0
sa(dp1269
g5
F0.6230530345701748
sg6
F38.02149263629698
sg7
F0.8000000000000662
sg8
F4.0
saa(lp1270
(dp1271
g5
F9.90442571243608
sg6
F40.0
sg7
F1.5707963267948966
sg8
F4.0
sa(dp1272
g5
F0.9177995332734765
sg6
F38.29182755602743
sg7
F0.8571428571429232
sg8
F4.0
saa(lp1273
(dp1274
g5
F10.304425712436078
sg6
F40.0
sg7
F1.5707963267948966
sg8
F4.0
sa(dp1275
g5
F1.2275042482875094
sg6
F38.54488774021609
sg7
F0.9142857142857801
sg8
F4.0
saa(lp1276
(dp1277
g5
F10.704396656109374
sg6
F39.997015221290525
sg7
F1.6000000000000505
sg8
F4.0
sa(dp1278
g5
F1.551156174058657
sg6
F38.77984709471842
sg7
F0.9714285714286369
sg8
F4.0
saa(lp1279
(dp1280
g5
F11.10367492056402
sg6
F39.97392117752144
sg7
F1.6571428571429074
sg8
F4.0
sa(dp1281
g5
F1.8876987755116397
sg6
F38.99593861405868
sg7
F1.028571428571494
sg8
F4.0
saa(lp1282
(dp1283
g5
F11.500982537922642
sg6
F39.9280613420187
sg7
F1.7142857142857644
sg8
F4.0
sa(dp1284
g5
F2.2360334370213084
sg6
F39.19245688525621
sg7
F1.085714285714351
sg8
F4.0
saa(lp1285
(dp1286
g5
F11.895022530166596
sg6
F39.859585420441064
sg7
F1.771428571428621
sg8
F4.0
sa(dp1287
g5
F2.5950230487529393
sg6
F39.36876039058806
sg7
F1.1428571428572079
sg8
F4.0
saa(lp1288
(dp1289
g5
F12.284508586170507
sg6
F39.76871694679898
sg7
F1.828571428571478
sg8
F4.0
sa(dp1290
g5
F2.9634957186637076
sg6
F39.52427360177075
sg7
F1.2000000000000648
sg8
F4.0
saa(lp1291
(dp1292
g5
F12.668169260759065
sg6
F39.65575255374623
sg7
F1.8857142857143352
sg8
F4.0
sa(dp1293
g5
F3.340248598047814
sg6
F39.65848885872504
sg7
F1.2571428571429217
sg8
F4.0
saa(lp1294
(dp1295
g5
F13.044752125235163
sg6
F39.52106100424702
sg7
F1.9428571428571921
sg8
F4.0
sa(dp1296
g5
F3.724051808137089
sg6
F39.77096802679047
sg7
F1.3142857142857787
sg8
F4.0
saa(lp1297
(dp1298
g5
F13.41302785583031
sg6
F39.36508198777963
sg7
F2.000000000000049
sg8
F4.0
sa(dp1299
g5
F4.113652454939017
sg6
F39.861343926979856
sg7
F1.3714285714286356
sg8
F4.0
saa(lp1300
(dp1301
g5
F13.771794246730892
sg6
F39.18832468500632
sg7
F2.057142857142906
sg8
F4.0
sa(dp1302
g5
F4.50777871920606
sg6
F39.92932153460493
sg7
F1.4285714285714926
sg8
F4.0
saa(lp1303
(dp1304
g5
F14.119880134580116
sg6
F38.99136610559497
sg7
F2.1142857142857627
sg8
F4.0
sa(dp1305
g5
F4.905144008184919
sg6
F39.97467894236012
sg7
F1.4857142857143495
sg8
F4.0
saa(lp1306
(dp1307
g5
F14.456149221644402
sg6
F38.774849204618455
sg7
F2.1714285714286197
sg8
F4.0
sa(dp1308
g5
F5.304451155592696
sg6
F39.9972680847207
sg7
F1.5428571428572064
sg8
F4.0
saa(lp1309
(dp1310
g5
F14.779503785163811
sg6
F38.53948078368078
sg7
F2.2285714285714766
sg8
F4.0
sa(dp1311
g5
F5.704425712436169
sg6
F40.0
sg7
F1.5707963267948966
sg8
F4.0
saa(lp1312
(dp1313
g5
F15.088888260777662
sg6
F38.28602918362139
sg7
F2.2857142857143335
sg8
F4.0
sa(dp1314
g5
F6.104425712436168
sg6
F40.0
sg7
F1.5707963267948966
sg8
F4.0
saa(lp1315
(dp1316
g5
F15.383292688327504
sg6
F38.01532177632973
sg7
F2.3428571428571905
sg8
F4.0
sa(dp1317
g5
F6.504425712436166
sg6
F40.0
sg7
F1.5707963267948966
sg8
F4.0
saa(lp1318
(dp1319
g5
F15.661756008788943
sg6
F37.72824226385781
sg7
F2.4000000000000474
sg8
F4.0
sa(dp1320
g5
F6.904425712436165
sg6
F40.0
sg7
F1.5707963267948966
sg8
F4.0
saa(lp1321
(dp1322
g5
F15.923369201569734
sg6
F37.4257277936476
sg7
F2.4571428571429044
sg8
F4.0
sa(dp1323
g5
F7.304425712436164
sg6
F40.0
sg7
F1.5707963267948966
sg8
F4.0
saa(lp1324
(dp1325
g5
F16.167278251932682
sg6
F37.108765899290304
sg7
F2.5142857142857613
sg8
F4.0
sa(dp1326
g5
F7.704425712436162
sg6
F40.0
sg7
F1.5707963267948966
sg8
F4.0
saa(lp1327
(dp1328
g5
F16.392686938856475
sg6
F36.77839127680423
sg7
F2.5714285714286182
sg8
F4.0
sa(dp1329
g5
F8.10442571243616
sg6
F40.0
sg7
F1.5707963267948966
sg8
F4.0
saa(lp1330
(dp1331
g5
F16.598859434233677
sg6
F36.43568240695482
sg7
F2.628571428571475
sg8
F4.0
sa(dp1332
g5
F8.50442571243616
sg6
F40.0
sg7
F1.5707963267948966
sg8
F4.0
saa(lp1333
(dp1334
g5
F16.78512270492103
sg6
F36.08175803464292
sg7
F2.685714285714332
sg8
F4.0
sa(dp1335
g5
F8.904425712436158
sg6
F40.0
sg7
F1.5707963267948966
sg8
F4.0
saa(lp1336
(dp1337
g5
F16.950868709800744
sg6
F35.71777351685413
sg7
F2.742857142857189
sg8
F4.0
sa(dp1338
g5
F9.304425712436156
sg6
F40.0
sg7
F1.5707963267948966
sg8
F4.0
saa(lp1339
(dp1340
g5
F17.095556384680716
sg6
F35.34491705109103
sg7
F2.800000000000046
sg8
F4.0
sa(dp1341
g5
F9.704425712436155
sg6
F40.0
sg7
F1.5707963267948966
sg8
F4.0
saa(lp1342
(dp1343
g5
F17.21871340855402
sg6
F34.96440579660019
sg7
F2.857142857142903
sg8
F4.0
sa(dp1344
g5
F10.104425712436154
sg6
F40.0
sg7
F1.5707963267948966
sg8
F4.0
saa(lp1345
(dp1346
g5
F17.319937745451988
sg6
F34.577481901056004
sg7
F2.91428571428576
sg8
F4.0
sa(dp1347
g5
F10.504425712141302
sg6
F39.99999860093358
sg7
F1.5714285714286327
sg8
F4.0
saa(lp1348
(dp1349
g5
F17.39889895685753
sg6
F34.18540844567182
sg7
F2.971428571428617
sg8
F4.0
sa(dp1350
g5
F10.904200757014777
sg6
F39.98832038103782
sg7
F1.6285714285714896
sg8
F4.0
saa(lp1351
(dp1352
g5
F17.455339280394483
sg6
F33.789465321975285
sg7
F3.0285714285714738
sg8
F4.0
sa(dp1353
g5
F11.302656321782505
sg6
F39.95382936439359
sg7
F1.6857142857143466
sg8
F4.0
saa(lp1354
(dp1355
g5
F17.48907447127167
sg6
F33.39094505370779
sg7
F3.0857142857143307
sg8
F4.0
sa(dp1356
g5
F11.698491681046006
sg6
F39.89663814408611
sg7
F1.7428571428572033
sg8
F4.0
saa(lp1357
(dp1358
g5
F17.5
sg6
F32.991148575128236
sg7
F3.141592653589793
sg8
F4.0
sa(dp1359
g5
F12.090414662852021
sg6
F39.81693341614727
sg7
F1.8000000000000604
sg8
F4.0
saa(lp1360
(dp1361
g5
F17.5
sg6
F32.59114857512824
sg7
F3.141592653589793
sg8
F4.0
sa(dp1362
g5
F12.47714586688152
sg6
F39.71497537010176
sg7
F1.8571428571429172
sg8
F4.0
saa(lp1363
(dp1364
g5
F17.5
sg6
F32.19114857512824
sg7
F3.141592653589793
sg8
F4.0
sa(dp1365
g5
F12.85742284094674
sg6
F39.591096839599814
sg7
F1.9142857142857743
sg8
F4.0
saa(lp1366
(dp1367
g5
F17.5
sg6
F31.79114857512824
sg7
F3.141592653589793
sg8
F4.0
sa(dp1368
g5
F13.230004202162455
sg6
F39.44570221590909
sg7
F1.971428571428631
sg8
F4.0
saa(lp1369
(dp1370
g5
F17.5
sg6
F31.39114857512824
sg7
F3.141592653589793
sg8
F4.0
sa(dp1371
g5
F13.593673689338248
sg6
F39.27926612781273
sg7
F2.028571428571488
sg8
F4.0
saa(lp1372
(dp1373
g5
F17.5
sg6
F30.991148575128243
sg7
F3.141592653589793
sg8
F4.0
sa(dp1374
g5
F13.947244133363055
sg6
F39.09233189222272
sg7
F2.085714285714345
sg8
F4.0
saa(lp1375
(dp1376
g5
F17.5
sg6
F30.591148575128244
sg7
F3.141592653589793
sg8
F4.0
sa(dp1377
g5
F14.289561332621036
sg6
F38.885509740566526
sg7
F2.142857142857202
sg8
F4.0
saa(lp1378
(dp1379
g5
F17.5
sg6
F30.191148575128246
sg7
F3.141592653589793
sg8
F4.0
sa(dp1380
g5
F14.619507820787753
sg6
F38.65947482673689
sg7
F2.200000000000059
sg8
F4.0
saa(lp1381
(dp1382
g5
F17.5
sg6
F29.791148575128247
sg7
F3.141592653589793
sg8
F4.0
sa(dp1383
g5
F14.936006514707026
sg6
F38.41496502310743
sg7
F2.2571428571429157
sg8
F4.0
saa(lp1384
(dp1385
g5
F17.5
sg6
F29.39114857512825
sg7
F3.141592653589793
sg8
F4.0
sa(dp1386
g5
F15.238024230440244
sg6
F38.15277851180905
sg7
F2.3142857142857727
sg8
F4.0
saa(lp1387
(dp1388
g5
F17.5
sg6
F28.99114857512825
sg7
F3.141592653589793
sg8
F4.0
sa(dp1389
g5
F15.52457505601031
sg6
F37.87377117913008
sg7
F2.3714285714286296
sg8
F4.0
saa(lp1390
(dp1391
g5
F17.5
sg6
F28.591148575128244
sg7
F3.141592653589793
sg8
F4.0
sa(dp1392
g5
F15.794723569830145
sg6
F37.57885382154586
sg7
F2.4285714285714866
sg8
F4.0
saa(lp1393
(dp1394
g5
F17.5
sg6
F28.19114857512824
sg7
F3.141592653589793
sg8
F4.0
sa(dp1395
g5
F16.047587894309476
sg6
F37.26898917249868
sg7
F2.4857142857143435
sg8
F4.0
saa(lp1396
(dp1397
g5
F17.5
sg6
F27.791148575128233
sg7
F3.141592653589793
sg8
F4.0
sa(dp1398
g5
F16.282342574671656
sg6
F36.94518875963363
sg7
F2.5428571428572004
sg8
F4.0
saa(lp1399
(dp1400
g5
F17.5
sg6
F27.391148575128227
sg7
F3.141592653589793
sg8
F4.0
sa(dp1401
g5
F16.49822127358284
sg6
F36.608509602749905
sg7
F2.6000000000000574
sg8
F4.0
saa(lp1402
(dp1403
g5
F17.5
sg6
F26.99114857512822
sg7
F3.141592653589793
sg8
F4.0
sa(dp1404
g5
F16.69451927279714
sg6
F36.2600507632466
sg7
F2.6571428571429143
sg8
F4.0
saa(lp1405
(dp1406
g5
F17.5
sg6
F26.591148575128216
sg7
F3.141592653589793
sg8
F4.0
sa(dp1407
g5
F16.87059577365136
sg6
F35.90094975632731
sg7
F2.7142857142857713
sg8
F4.0
saa(lp1408
(dp1409
g5
F17.5
sg6
F26.19114857512821
sg7
F3.141592653589793
sg8
F4.0
sa(dp1410
g5
F17.025875988899465
sg6
F35.532378837675246
sg7
F2.771428571428628
sg8
F4.0
saa(lp1411
(dp1412
g5
F17.5
sg6
F25.791148575128204
sg7
F3.141592653589793
sg8
F4.0
sa(dp1413
g5
F17.159853019058275
sg6
F35.15554117672115
sg7
F2.828571428571485
sg8
F4.0
saa(lp1414
(dp1415
g5
F17.5
sg6
F25.3911485751282
sg7
F3.141592653589793
sg8
F4.0
sa(dp1416
g5
F17.272089507139068
sg6
F34.771666928995664
sg7
F2.885714285714342
sg8
F4.0
saa(lp1417
(dp1418
g5
F17.5
sg6
F24.991148575128193
sg7
F3.141592653589793
sg8
F4.0
sa(dp1419
g5
F17.362219066363526
sg6
F34.3820092203878
sg7
F2.942857142857199
sg8
F4.0
saa(lp1420
(dp1421
g5
F17.5
sg6
F24.591148575128187
sg7
F3.141592653589793
sg8
F4.0
sa(dp1422
g5
F17.429947476203175
sg6
F33.98784005641868
sg7
F3.000000000000056
sg8
F4.0
saa(lp1423
(dp1424
g5
F17.5
sg6
F24.19114857512818
sg7
F3.141592653589793
sg8
F4.0
sa(dp1425
g5
F17.475053642838105
sg6
F33.590446169884146
sg7
F3.057142857142913
sg8
F4.0
saa(lp1426
(dp1427
g5
F17.5
sg6
F23.791148575128176
sg7
F3.141592653589793
sg8
F4.0
sa(dp1428
g5
F17.497390320899562
sg6
F33.19112482042146
sg7
F3.11428571428577
sg8
F4.0
saa(lp1429
(dp1430
g5
F17.5
sg6
F23.39114857512817
sg7
F3.141592653589793
sg8
F4.0
sa(dp1431
g5
F17.5
sg6
F32.79114857512816
sg7
F3.141592653589793
sg8
F4.0
saa(lp1432
(dp1433
g5
F17.5
sg6
F22.991148575128165
sg7
F3.141592653589793
sg8
F4.0
sa(dp1434
g5
F17.5
sg6
F32.39114857512816
sg7
F3.141592653589793
sg8
F4.0
saa(lp1435
(dp1436
g5
F17.5
sg6
F22.59114857512816
sg7
F3.141592653589793
sg8
F4.0
sa(dp1437
g5
F17.5
sg6
F31.991148575128165
sg7
F3.141592653589793
sg8
F4.0
saa(lp1438
(dp1439
g5
F17.5
sg6
F22.191148575128153
sg7
F3.141592653589793
sg8
F4.0
sa(dp1440
g5
F17.5
sg6
F31.591148575128166
sg7
F3.141592653589793
sg8
F4.0
saa(lp1441
(dp1442
g5
F17.5
sg6
F21.791148575128148
sg7
F3.141592653589793
sg8
F4.0
sa(dp1443
g5
F17.5
sg6
F31.191148575128167
sg7
F3.141592653589793
sg8
F4.0
saa(lp1444
(dp1445
g5
F17.5
sg6
F21.391148575128142
sg7
F3.141592653589793
sg8
F4.0
sa(dp1446
g5
F17.5
sg6
F30.79114857512817
sg7
F3.141592653589793
sg8
F4.0
saa(lp1447
(dp1448
g5
F17.5
sg6
F20.991148575128136
sg7
F3.141592653589793
sg8
F4.0
sa(dp1449
g5
F17.5
sg6
F30.39114857512817
sg7
F3.141592653589793
sg8
F4.0
saa(lp1450
(dp1451
g5
F17.5
sg6
F20.59114857512813
sg7
F3.141592653589793
sg8
F4.0
sa(dp1452
g5
F17.5
sg6
F29.99114857512817
sg7
F3.141592653589793
sg8
F4.0
saa(lp1453
(dp1454
g5
F17.5
sg6
F20.191148575128125
sg7
F3.141592653589793
sg8
F4.0
sa(dp1455
g5
F17.5
sg6
F29.591148575128173
sg7
F3.141592653589793
sg8
F4.0
saa(lp1456
(dp1457
g5
F17.5
sg6
F19.79114857512812
sg7
F3.141592653589793
sg8
F4.0
sa(dp1458
g5
F17.5
sg6
F29.191148575128175
sg7
F3.141592653589793
sg8
F4.0
saa(lp1459
(dp1460
g5
F17.5
sg6
F19.391148575128113
sg7
F3.141592653589793
sg8
F4.0
sa(dp1461
g5
F17.5
sg6
F28.791148575128176
sg7
F3.141592653589793
sg8
F4.0
saa(lp1462
(dp1463
g5
F17.5
sg6
F18.991148575128108
sg7
F3.141592653589793
sg8
F4.0
sa(dp1464
g5
F17.5
sg6
F28.39114857512817
sg7
F3.141592653589793
sg8
F4.0
saa(lp1465
(dp1466
g5
F17.5
sg6
F18.591148575128102
sg7
F3.141592653589793
sg8
F4.0
sa(dp1467
g5
F17.5
sg6
F27.991148575128165
sg7
F3.141592653589793
sg8
F4.0
saa(lp1468
(dp1469
g5
F17.5
sg6
F18.191148575128096
sg7
F3.141592653589793
sg8
F4.0
sa(dp1470
g5
F17.5
sg6
F27.59114857512816
sg7
F3.141592653589793
sg8
F4.0
saa(lp1471
(dp1472
g5
F17.5
sg6
F17.79114857512809
sg7
F3.141592653589793
sg8
F4.0
sa(dp1473
g5
F17.5
sg6
F27.191148575128153
sg7
F3.141592653589793
sg8
F4.0
saa(lp1474
(dp1475
g5
F17.5
sg6
F17.391148575128085
sg7
F3.141592653589793
sg8
F4.0
sa(dp1476
g5
F17.5
sg6
F26.791148575128148
sg7
F3.141592653589793
sg8
F4.0
saa(lp1477
(dp1478
g5
F17.5
sg6
F16.99114857512808
sg7
F3.141592653589793
sg8
F4.0
sa(dp1479
g5
F17.5
sg6
F26.391148575128142
sg7
F3.141592653589793
sg8
F4.0
saa(lp1480
(dp1481
g5
F17.5
sg6
F16.591148575128074
sg7
F3.141592653589793
sg8
F4.0
sa(dp1482
g5
F17.5
sg6
F25.991148575128136
sg7
F3.141592653589793
sg8
F4.0
saa(lp1483
(dp1484
g5
F17.5
sg6
F16.191148575128068
sg7
F3.141592653589793
sg8
F4.0
sa(dp1485
g5
F17.5
sg6
F25.59114857512813
sg7
F3.141592653589793
sg8
F4.0
saa(lp1486
(dp1487
g5
F17.5
sg6
F15.791148575128062
sg7
F3.141592653589793
sg8
F4.0
sa(dp1488
g5
F17.5
sg6
F25.191148575128125
sg7
F3.141592653589793
sg8
F4.0
saa(lp1489
(dp1490
g5
F17.5
sg6
F15.391148575128057
sg7
F3.141592653589793
sg8
F4.0
sa(dp1491
g5
F17.5
sg6
F24.79114857512812
sg7
F3.141592653589793
sg8
F4.0
saa(lp1492
(dp1493
g5
F17.5
sg6
F14.99114857512805
sg7
F3.141592653589793
sg8
F4.0
sa(dp1494
g5
F17.5
sg6
F24.391148575128113
sg7
F3.141592653589793
sg8
F4.0
saa(lp1495
(dp1496
g5
F17.5
sg6
F14.591148575128045
sg7
F3.141592653589793
sg8
F4.0
sa(dp1497
g5
F17.5
sg6
F23.991148575128108
sg7
F3.141592653589793
sg8
F4.0
saa(lp1498
(dp1499
g5
F17.5
sg6
F14.19114857512804
sg7
F3.141592653589793
sg8
F4.0
sa(dp1500
g5
F17.5
sg6
F23.591148575128102
sg7
F3.141592653589793
sg8
F4.0
saa(lp1501
(dp1502
g5
F17.5
sg6
F13.791148575128034
sg7
F3.141592653589793
sg8
F4.0
sa(dp1503
g5
F17.5
sg6
F23.191148575128096
sg7
F3.141592653589793
sg8
F4.0
saa(lp1504
(dp1505
g5
F17.5
sg6
F13.391148575128028
sg7
F3.141592653589793
sg8
F4.0
sa(dp1506
g5
F17.5
sg6
F22.79114857512809
sg7
F3.141592653589793
sg8
F4.0
saa(lp1507
(dp1508
g5
F17.5
sg6
F12.991148575128022
sg7
F3.141592653589793
sg8
F4.0
sa(dp1509
g5
F17.5
sg6
F22.391148575128085
sg7
F3.141592653589793
sg8
F4.0
saa(lp1510
(dp1511
g5
F17.5
sg6
F12.591148575128017
sg7
F3.141592653589793
sg8
F4.0
sa(dp1512
g5
F17.5
sg6
F21.99114857512808
sg7
F3.141592653589793
sg8
F4.0
saa(lp1513
(dp1514
g5
F17.5
sg6
F12.191148575128011
sg7
F3.141592653589793
sg8
F4.0
sa(dp1515
g5
F17.5
sg6
F21.591148575128074
sg7
F3.141592653589793
sg8
F4.0
saa(lp1516
(dp1517
g5
F17.5
sg6
F11.791148575128005
sg7
F3.141592653589793
sg8
F4.0
sa(dp1518
g5
F17.5
sg6
F21.191148575128068
sg7
F3.141592653589793
sg8
F4.0
saa(lp1519
(dp1520
g5
F17.5
sg6
F11.391148575128
sg7
F3.141592653589793
sg8
F4.0
sa(dp1521
g5
F17.5
sg6
F20.791148575128062
sg7
F3.141592653589793
sg8
F4.0
saa(lp1522
(dp1523
g5
F17.5
sg6
F10.991148575127994
sg7
F3.141592653589793
sg8
F4.0
sa(dp1524
g5
F17.5
sg6
F20.391148575128057
sg7
F3.141592653589793
sg8
F4.0
saa(lp1525
(dp1526
g5
F17.5
sg6
F10.591148575127988
sg7
F3.141592653589793
sg8
F4.0
sa(dp1527
g5
F17.5
sg6
F19.99114857512805
sg7
F3.141592653589793
sg8
F4.0
saa(lp1528
(dp1529
g5
F17.5
sg6
F10.191148575127983
sg7
F3.141592653589793
sg8
F4.0
sa(dp1530
g5
F17.5
sg6
F19.591148575128045
sg7
F3.141592653589793
sg8
F4.0
saa(lp1531
(dp1532
g5
F17.5
sg6
F9.791148575127977
sg7
F3.141592653589793
sg8
F4.0
sa(dp1533
g5
F17.5
sg6
F19.19114857512804
sg7
F3.141592653589793
sg8
F4.0
saa(lp1534
(dp1535
g5
F17.5
sg6
F9.391148575127971
sg7
F3.141592653589793
sg8
F4.0
sa(dp1536
g5
F17.5
sg6
F18.791148575128034
sg7
F3.141592653589793
sg8
F4.0
saa(lp1537
(dp1538
g5
F17.5
sg6
F8.991148575127966
sg7
F3.141592653589793
sg8
F4.0
sa(dp1539
g5
F17.5
sg6
F18.391148575128028
sg7
F3.141592653589793
sg8
F4.0
saa(lp1540
(dp1541
g5
F17.5
sg6
F8.59114857512796
sg7
F3.141592653589793
sg8
F4.0
sa(dp1542
g5
F17.5
sg6
F17.991148575128022
sg7
F3.141592653589793
sg8
F4.0
saa(lp1543
(dp1544
g5
F17.5
sg6
F8.191148575127954
sg7
F3.141592653589793
sg8
F4.0
sa(dp1545
g5
F17.5
sg6
F17.591148575128017
sg7
F3.141592653589793
sg8
F4.0
saa(lp1546
(dp1547
g5
F17.5
sg6
F7.791148575127949
sg7
F3.141592653589793
sg8
F4.0
sa(dp1548
g5
F17.5
sg6
F17.19114857512801
sg7
F3.141592653589793
sg8
F4.0
saa(lp1549
(dp1550
g5
F17.5
sg6
F7.391148575127943
sg7
F3.141592653589793
sg8
F4.0
sa(dp1551
g5
F17.5
sg6
F16.791148575128005
sg7
F3.141592653589793
sg8
F4.0
saa(lp1552
(dp1553
g5
F17.5
sg6
F6.991148575127937
sg7
F3.141592653589793
sg8
F4.0
sa(dp1554
g5
F17.5
sg6
F16.391148575128
sg7
F3.141592653589793
sg8
F4.0
saa(lp1555
(dp1556
g5
F17.5
sg6
F6.5911485751279315
sg7
F3.141592653589793
sg8
F4.0
sa(dp1557
g5
F17.5
sg6
F15.991148575127994
sg7
F3.141592653589793
sg8
F4.0
saa(lp1558
(dp1559
g5
F17.5
sg6
F6.191148575127926
sg7
F3.141592653589793
sg8
F4.0
sa(dp1560
g5
F17.5
sg6
F15.591148575127988
sg7
F3.141592653589793
sg8
F4.0
saa(lp1561
(dp1562
g5
F17.5
sg6
F5.79114857512792
sg7
F3.141592653589793
sg8
F4.0
sa(dp1563
g5
F17.5
sg6
F15.191148575127983
sg7
F3.141592653589793
sg8
F4.0
saa(lp1564
(dp1565
g5
F17.5
sg6
F5.3911485751279145
sg7
F3.141592653589793
sg8
F4.0
sa(dp1566
g5
F17.5
sg6
F14.791148575127977
sg7
F3.141592653589793
sg8
F4.0
saa(lp1567
(dp1568
g5
F17.5
sg6
F4.991148575127909
sg7
F3.141592653589793
sg8
F4.0
sa(dp1569
g5
F17.5
sg6
F14.391148575127971
sg7
F3.141592653589793
sg8
F4.0
saa(lp1570
(dp1571
g5
F17.5
sg6
F4.591148575127903
sg7
F3.141592653589793
sg8
F4.0
sa(dp1572
g5
F17.5
sg6
F13.991148575127966
sg7
F3.141592653589793
sg8
F4.0
saa(lp1573
(dp1574
g5
F17.5
sg6
F4.191148575127897
sg7
F3.141592653589793
sg8
F4.0
sa(dp1575
g5
F17.5
sg6
F13.59114857512796
sg7
F3.141592653589793
sg8
F4.0
saa(lp1576
(dp1577
g5
F17.5
sg6
F3.7911485751278917
sg7
F3.141592653589793
sg8
F4.0
sa(dp1578
g5
F17.5
sg6
F13.191148575127954
sg7
F3.141592653589793
sg8
F4.0
saa(lp1579
(dp1580
g5
F17.5
sg6
F3.391148575127886
sg7
F3.141592653589793
sg8
F4.0
sa(dp1581
g5
F17.5
sg6
F12.791148575127949
sg7
F3.141592653589793
sg8
F4.0
saa(lp1582
(dp1583
g5
F17.5
sg6
F2.9911485751278803
sg7
F3.141592653589793
sg8
F4.0
sa(dp1584
g5
F17.5
sg6
F12.391148575127943
sg7
F3.141592653589793
sg8
F4.0
saa(lp1585
(dp1586
g5
F17.5
sg6
F2.5911485751278747
sg7
F3.141592653589793
sg8
F4.0
sa(dp1587
g5
F17.5
sg6
F11.991148575127937
sg7
F3.141592653589793
sg8
F4.0
saa(lp1588
(dp1589
g5
F17.5
sg6
F2.191148575127869
sg7
F3.141592653589793
sg8
F4.0
sa(dp1590
g5
F17.5
sg6
F11.591148575127932
sg7
F3.141592653589793
sg8
F4.0
saa(lp1591
(dp1592
g5
F17.5
sg6
F1.7911485751278633
sg7
F3.141592653589793
sg8
F4.0
sa(dp1593
g5
F17.5
sg6
F11.191148575127926
sg7
F3.141592653589793
sg8
F4.0
saa(lp1594
(dp1595
g5
F17.5
sg6
F1.3911485751278576
sg7
F3.141592653589793
sg8
F4.0
sa(dp1596
g5
F17.5
sg6
F10.79114857512792
sg7
F3.141592653589793
sg8
F4.0
saa(lp1597
(dp1598
g5
F17.5
sg6
F0.9911485751278519
sg7
F3.141592653589793
sg8
F4.0
sa(dp1599
g5
F17.5
sg6
F10.391148575127914
sg7
F3.141592653589793
sg8
F4.0
saa(lp1600
(dp1601
g5
F17.5
sg6
F0.5911485751278462
sg7
F3.141592653589793
sg8
F4.0
sa(dp1602
g5
F17.5
sg6
F9.991148575127909
sg7
F3.141592653589793
sg8
F4.0
saa(lp1603
(dp1604
g5
F17.5
sg6
F0.19114857512784056
sg7
F3.141592653589793
sg8
F4.0
sa(dp1605
g5
F17.5
sg6
F9.591148575127903
sg7
F3.141592653589793
sg8
F4.0
saa(lp1606
(dp1607
g5
F17.5
sg6
F-0.20885142487216513
sg7
F3.141592653589793
sg8
F4.0
sa(dp1608
g5
F17.5
sg6
F9.191148575127897
sg7
F3.141592653589793
sg8
F4.0
saa(lp1609
(dp1610
g5
F17.5
sg6
F-0.6088514248721708
sg7
F3.141592653589793
sg8
F4.0
sa(dp1611
g5
F17.5
sg6
F8.791148575127892
sg7
F3.141592653589793
sg8
F4.0
saa(lp1612
(dp1613
g5
F17.5
sg6
F-1.0088514248721765
sg7
F3.141592653589793
sg8
F4.0
sa(dp1614
g5
F17.5
sg6
F8.391148575127886
sg7
F3.141592653589793
sg8
F4.0
saa(lp1615
(dp1616
g5
F17.5
sg6
F-1.4088514248721822
sg7
F3.141592653589793
sg8
F4.0
sa(dp1617
g5
F17.5
sg6
F7.99114857512788
sg7
F3.141592653589793
sg8
F4.0
saa(lp1618
(dp1619
g5
F17.5
sg6
F-1.8088514248721879
sg7
F3.141592653589793
sg8
F4.0
sa(dp1620
g5
F17.5
sg6
F7.591148575127875
sg7
F3.141592653589793
sg8
F4.0
saa(lp1621
(dp1622
g5
F17.5
sg6
F-2.2088514248721935
sg7
F3.141592653589793
sg8
F4.0
sa(dp1623
g5
F17.5
sg6
F7.191148575127869
sg7
F3.141592653589793
sg8
F4.0
saa(lp1624
(dp1625
g5
F17.5
sg6
F-2.6088514248721992
sg7
F3.141592653589793
sg8
F4.0
sa(dp1626
g5
F17.5
sg6
F6.791148575127863
sg7
F3.141592653589793
sg8
F4.0
saa(lp1627
(dp1628
g5
F17.5
sg6
F-3.008851424872205
sg7
F3.141592653589793
sg8
F4.0
sa(dp1629
g5
F17.5
sg6
F6.391148575127858
sg7
F3.141592653589793
sg8
F4.0
saa(lp1630
(dp1631
g5
F17.5
sg6
F-3.4088514248722106
sg7
F3.141592653589793
sg8
F4.0
sa(dp1632
g5
F17.5
sg6
F5.991148575127852
sg7
F3.141592653589793
sg8
F4.0
saa(lp1633
(dp1634
g5
F17.5
sg6
F-3.8088514248722163
sg7
F3.141592653589793
sg8
F4.0
sa(dp1635
g5
F17.5
sg6
F5.591148575127846
sg7
F3.141592653589793
sg8
F4.0
saa(lp1636
(dp1637
g5
F17.5
sg6
F-4.208851424872222
sg7
F3.141592653589793
sg8
F4.0
sa(dp1638
g5
F17.5
sg6
F5.191148575127841
sg7
F3.141592653589793
sg8
F4.0
saa(lp1639
(dp1640
g5
F17.5
sg6
F-4.608851424872228
sg7
F3.141592653589793
sg8
F4.0
sa(dp1641
g5
F17.5
sg6
F4.791148575127835
sg7
F3.141592653589793
sg8
F4.0
saa(lp1642
(dp1643
g5
F17.5
sg6
F-5.008851424872233
sg7
F3.141592653589793
sg8
F4.0
sa(dp1644
g5
F17.5
sg6
F4.391148575127829
sg7
F3.141592653589793
sg8
F4.0
saa(lp1645
(dp1646
g5
F17.5
sg6
F-5.408851424872239
sg7
F3.141592653589793
sg8
F4.0
sa(dp1647
g5
F17.5
sg6
F3.9911485751278235
sg7
F3.141592653589793
sg8
F4.0
saa(lp1648
(dp1649
g5
F17.5
sg6
F-5.808851424872245
sg7
F3.141592653589793
sg8
F4.0
sa(dp1650
g5
F17.5
sg6
F3.591148575127818
sg7
F3.141592653589793
sg8
F4.0
saa(lp1651
(dp1652
g5
F17.5
sg6
F-6.20885142487225
sg7
F3.141592653589793
sg8
F4.0
sa(dp1653
g5
F17.5
sg6
F3.191148575127812
sg7
F3.141592653589793
sg8
F4.0
saa(lp1654
(dp1655
g5
F17.5
sg6
F-6.608851424872256
sg7
F3.141592653589793
sg8
F4.0
sa(dp1656
g5
F17.5
sg6
F2.7911485751278065
sg7
F3.141592653589793
sg8
F4.0
saa(lp1657
(dp1658
g5
F17.5
sg6
F-7.008851424872262
sg7
F3.141592653589793
sg8
F4.0
sa(dp1659
g5
F17.5
sg6
F2.3911485751278008
sg7
F3.141592653589793
sg8
F4.0
saa(lp1660
(dp1661
g5
F17.5
sg6
F-7.408851424872267
sg7
F3.141592653589793
sg8
F4.0
sa(dp1662
g5
F17.5
sg6
F1.991148575127795
sg7
F3.141592653589793
sg8
F4.0
saa(lp1663
(dp1664
g5
F17.5
sg6
F-7.808851424872273
sg7
F3.141592653589793
sg8
F4.0
sa(dp1665
g5
F17.5
sg6
F1.5911485751277894
sg7
F3.141592653589793
sg8
F4.0
saa(lp1666
(dp1667
g5
F17.5
sg6
F-8.208851424872279
sg7
F3.141592653589793
sg8
F4.0
sa(dp1668
g5
F17.5
sg6
F1.1911485751277837
sg7
F3.141592653589793
sg8
F4.0
saa(lp1669
(dp1670
g5
F17.5
sg6
F-8.608851424872284
sg7
F3.141592653589793
sg8
F4.0
sa(dp1671
g5
F17.5
sg6
F0.791148575127778
sg7
F3.141592653589793
sg8
F4.0
saa(lp1672
(dp1673
g5
F17.5
sg6
F-9.00885142487229
sg7
F3.141592653589793
sg8
F4.0
sa(dp1674
g5
F17.5
sg6
F0.39114857512777235
sg7
F3.141592653589793
sg8
F4.0
saa(lp1675
(dp1676
g5
F17.5
sg6
F-9.408851424872296
sg7
F3.141592653589793
sg8
F4.0
sa(dp1677
g5
F17.5
sg6
F-0.008851424872233338
sg7
F3.141592653589793
sg8
F4.0
saa(lp1678
(dp1679
g5
F17.5
sg6
F-9.808851424872302
sg7
F3.141592653589793
sg8
F4.0
sa(dp1680
g5
F17.5
sg6
F-0.408851424872239
sg7
F3.141592653589793
sg8
F4.0
saa(lp1681
(dp1682
g5
F17.5
sg6
F-10.208851424872307
sg7
F3.141592653589793
sg8
F4.0
sa(dp1683
g5
F17.5
sg6
F-0.8088514248722447
sg7
F3.141592653589793
sg8
F4.0
saa(lp1684
(dp1685
g5
F17.5
sg6
F-10.608851424872313
sg7
F3.141592653589793
sg8
F4.0
sa(dp1686
g5
F17.5
sg6
F-1.2088514248722504
sg7
F3.141592653589793
sg8
F4.0
saa(lp1687
(dp1688
g5
F17.5
sg6
F-11.008851424872319
sg7
F3.141592653589793
sg8
F4.0
sa(dp1689
g5
F17.5
sg6
F-1.608851424872256
sg7
F3.141592653589793
sg8
F4.0
saa(lp1690
(dp1691
g5
F17.5
sg6
F-11.408851424872324
sg7
F3.141592653589793
sg8
F4.0
sa(dp1692
g5
F17.5
sg6
F-2.0088514248722618
sg7
F3.141592653589793
sg8
F4.0
saa(lp1693
(dp1694
g5
F17.5
sg6
F-11.80885142487233
sg7
F3.141592653589793
sg8
F4.0
sa(dp1695
g5
F17.5
sg6
F-2.4088514248722674
sg7
F3.141592653589793
sg8
F4.0
saa(lp1696
(dp1697
g5
F17.5
sg6
F-12.208851424872336
sg7
F3.141592653589793
sg8
F4.0
sa(dp1698
g5
F17.5
sg6
F-2.808851424872273
sg7
F3.141592653589793
sg8
F4.0
saa(lp1699
(dp1700
g5
F17.5
sg6
F-12.608851424872341
sg7
F3.141592653589793
sg8
F4.0
sa(dp1701
g5
F17.5
sg6
F-3.208851424872279
sg7
F3.141592653589793
sg8
F4.0
saa(lp1702
(dp1703
g5
F17.5
sg6
F-13.008851424872347
sg7
F3.141592653589793
sg8
F4.0
sa(dp1704
g5
F17.5
sg6
F-3.6088514248722845
sg7
F3.141592653589793
sg8
F4.0
saa(lp1705
(dp1706
g5
F17.5
sg6
F-13.408851424872353
sg7
F3.141592653589793
sg8
F4.0
sa(dp1707
g5
F17.5
sg6
F-4.00885142487229
sg7
F3.141592653589793
sg8
F4.0
saa(lp1708
(dp1709
g5
F17.5
sg6
F-13.808851424872358
sg7
F3.141592653589793
sg8
F4.0
sa(dp1710
g5
F17.5
sg6
F-4.408851424872296
sg7
F3.141592653589793
sg8
F4.0
saa(lp1711
(dp1712
g5
F17.5
sg6
F-14.208851424872364
sg7
F3.141592653589793
sg8
F4.0
sa(dp1713
g5
F17.5
sg6
F-4.8088514248723015
sg7
F3.141592653589793
sg8
F4.0
saa(lp1714
(dp1715
g5
F17.5
sg6
F-14.60885142487237
sg7
F3.141592653589793
sg8
F4.0
sa(dp1716
g5
F17.5
sg6
F-5.208851424872307
sg7
F3.141592653589793
sg8
F4.0
saa(lp1717
(dp1718
g5
F17.5
sg6
F-15.008851424872375
sg7
F3.141592653589793
sg8
F4.0
sa(dp1719
g5
F17.5
sg6
F-5.608851424872313
sg7
F3.141592653589793
sg8
F4.0
saa(lp1720
(dp1721
g5
F17.5
sg6
F-15.408851424872381
sg7
F3.141592653589793
sg8
F4.0
sa(dp1722
g5
F17.5
sg6
F-6.008851424872319
sg7
F3.141592653589793
sg8
F4.0
saa(lp1723
(dp1724
g5
F17.5
sg6
F-15.808851424872387
sg7
F3.141592653589793
sg8
F4.0
sa(dp1725
g5
F17.5
sg6
F-6.408851424872324
sg7
F3.141592653589793
sg8
F4.0
saa(lp1726
(dp1727
g5
F17.5
sg6
F-16.208851424872392
sg7
F3.141592653589793
sg8
F4.0
sa(dp1728
g5
F17.5
sg6
F-6.80885142487233
sg7
F3.141592653589793
sg8
F4.0
saa(lp1729
(dp1730
g5
F17.5
sg6
F-16.608851424872398
sg7
F3.141592653589793
sg8
F4.0
sa(dp1731
g5
F17.5
sg6
F-7.208851424872336
sg7
F3.141592653589793
sg8
F4.0
saa(lp1732
(dp1733
g5
F17.5
sg6
F-17.008851424872404
sg7
F3.141592653589793
sg8
F4.0
sa(dp1734
g5
F17.5
sg6
F-7.608851424872341
sg7
F3.141592653589793
sg8
F4.0
saa(lp1735
(dp1736
g5
F17.5
sg6
F-17.40885142487241
sg7
F3.141592653589793
sg8
F4.0
sa(dp1737
g5
F17.5
sg6
F-8.008851424872347
sg7
F3.141592653589793
sg8
F4.0
saa(lp1738
(dp1739
g5
F17.5
sg6
F-17.808851424872415
sg7
F3.141592653589793
sg8
F4.0
sa(dp1740
g5
F17.5
sg6
F-8.408851424872353
sg7
F3.141592653589793
sg8
F4.0
saa(lp1741
(dp1742
g5
F17.5
sg6
F-18.20885142487242
sg7
F3.141592653589793
sg8
F4.0
sa(dp1743
g5
F17.5
sg6
F-8.808851424872358
sg7
F3.141592653589793
sg8
F4.0
saa(lp1744
(dp1745
g5
F17.5
sg6
F-18.608851424872427
sg7
F3.141592653589793
sg8
F4.0
sa(dp1746
g5
F17.5
sg6
F-9.208851424872364
sg7
F3.141592653589793
sg8
F4.0
saa(lp1747
(dp1748
g5
F17.5
sg6
F-19.008851424872432
sg7
F3.141592653589793
sg8
F4.0
sa(dp1749
g5
F17.5
sg6
F-9.60885142487237
sg7
F3.141592653589793
sg8
F4.0
saa(lp1750
(dp1751
g5
F17.5
sg6
F-19.408851424872438
sg7
F3.141592653589793
sg8
F4.0
sa(dp1752
g5
F17.5
sg6
F-10.008851424872375
sg7
F3.141592653589793
sg8
F4.0
saa(lp1753
(dp1754
g5
F17.5
sg6
F-19.808851424872444
sg7
F3.141592653589793
sg8
F4.0
sa(dp1755
g5
F17.5
sg6
F-10.408851424872381
sg7
F3.141592653589793
sg8
F4.0
saa(lp1756
(dp1757
g5
F17.5
sg6
F-20.20885142487245
sg7
F3.141592653589793
sg8
F4.0
sa(dp1758
g5
F17.5
sg6
F-10.808851424872387
sg7
F3.141592653589793
sg8
F4.0
saa(lp1759
(dp1760
g5
F17.5
sg6
F-20.608851424872455
sg7
F3.141592653589793
sg8
F4.0
sa(dp1761
g5
F17.5
sg6
F-11.208851424872392
sg7
F3.141592653589793
sg8
F4.0
saa(lp1762
(dp1763
g5
F17.5
sg6
F-21.00885142487246
sg7
F3.141592653589793
sg8
F4.0
sa(dp1764
g5
F17.5
sg6
F-11.608851424872398
sg7
F3.141592653589793
sg8
F4.0
saa(lp1765
(dp1766
g5
F17.5
sg6
F-21.408851424872466
sg7
F3.141592653589793
sg8
F4.0
sa(dp1767
g5
F17.5
sg6
F-12.008851424872404
sg7
F3.141592653589793
sg8
F4.0
saa(lp1768
(dp1769
g5
F17.5
sg6
F-21.808851424872472
sg7
F3.141592653589793
sg8
F4.0
sa(dp1770
g5
F17.5
sg6
F-12.40885142487241
sg7
F3.141592653589793
sg8
F4.0
saa(lp1771
(dp1772
g5
F17.5
sg6
F-22.208851424872478
sg7
F3.141592653589793
sg8
F4.0
sa(dp1773
g5
F17.5
sg6
F-12.808851424872415
sg7
F3.141592653589793
sg8
F4.0
saa(lp1774
(dp1775
g5
F17.5
sg6
F-22.608851424872483
sg7
F3.141592653589793
sg8
F4.0
sa(dp1776
g5
F17.5
sg6
F-13.208851424872421
sg7
F3.141592653589793
sg8
F4.0
saa(lp1777
(dp1778
g5
F17.5
sg6
F-23.00885142487249
sg7
F3.141592653589793
sg8
F4.0
sa(dp1779
g5
F17.5
sg6
F-13.608851424872427
sg7
F3.141592653589793
sg8
F4.0
saa(lp1780
(dp1781
g5
F17.5
sg6
F-23.408851424872495
sg7
F3.141592653589793
sg8
F4.0
sa(dp1782
g5
F17.5
sg6
F-14.008851424872432
sg7
F3.141592653589793
sg8
F4.0
saa(lp1783
(dp1784
g5
F17.5
sg6
F-23.8088514248725
sg7
F3.141592653589793
sg8
F4.0
sa(dp1785
g5
F17.5
sg6
F-14.408851424872438
sg7
F3.141592653589793
sg8
F4.0
saa(lp1786
(dp1787
g5
F17.5
sg6
F-24.208851424872506
sg7
F3.141592653589793
sg8
F4.0
sa(dp1788
g5
F17.5
sg6
F-14.808851424872444
sg7
F3.141592653589793
sg8
F4.0
saa(lp1789
(dp1790
g5
F17.5
sg6
F-24.608851424872512
sg7
F3.141592653589793
sg8
F4.0
sa(dp1791
g5
F17.5
sg6
F-15.20885142487245
sg7
F3.141592653589793
sg8
F4.0
saa(lp1792
(dp1793
g5
F17.5
sg6
F-25.008851424872518
sg7
F3.141592653589793
sg8
F4.0
sa(dp1794
g5
F17.5
sg6
F-15.608851424872455
sg7
F3.141592653589793
sg8
F4.0
saa(lp1795
(dp1796
g5
F17.5
sg6
F-25.408851424872523
sg7
F3.141592653589793
sg8
F4.0
sa(dp1797
g5
F17.5
sg6
F-16.00885142487246
sg7
F3.141592653589793
sg8
F4.0
saa(lp1798
(dp1799
g5
F17.5
sg6
F-25.80885142487253
sg7
F3.141592653589793
sg8
F4.0
sa(dp1800
g5
F17.5
sg6
F-16.408851424872466
sg7
F3.141592653589793
sg8
F4.0
saa(lp1801
(dp1802
g5
F17.5
sg6
F-25.80885142487253
sg7
F3.141592653589793
sg8
F0.0
sa(dp1803
g5
F17.5
sg6
F-16.808851424872472
sg7
F3.141592653589793
sg8
F4.0
saa(lp1804
(dp1805
g5
F17.5
sg6
F-25.5
sg7
F3.141592653589793
sg8
F2.6422951923971446e-47
sa(dp1806
g5
F17.5
sg6
F-17.208851424872478
sg7
F3.141592653589793
sg8
F4.0
saa(lp1807
(dp1808
g5
F17.5
sg6
F-25.515968956763984
sg7
F3.1418715836060427
sg8
F0.06653724660132779
sa(dp1809
g5
F17.5
sg6
F-17.208851424872478
sg7
F3.141592653589793
sg8
F4.0
saa(lp1810
(dp1811
g5
F17.499952865110455
sg6
F-25.5722685726367
sg7
F3.143839854748849
sg8
F0.16804431017129973
sa(dp1812
g5
F17.5
sg6
F-17.208851424872478
sg7
F3.141592653589793
sg8
F4.0
saa(lp1813
(dp1814
g5
F17.499481679233345
sg6
F-25.680921211945524
sg7
F3.149468838133448
sg8
F0.28467877886831644
sa(dp1815
g5
F17.5
sg6
F-17.208851424872478
sg7
F3.141592653589793
sg8
F4.0
saa(lp1816
(dp1817
g5
F17.497423729021524
sg6
F-25.846200582624178
sg7
F3.1605358558215317
sg8
F0.40403788921578077
sa(dp1818
g5
F17.5
sg6
F-17.208851424872478
sg7
F3.141592653589793
sg8
F4.0
saa(lp1819
(dp1820
g5
F17.49152983263939
sg6
F-26.06753078238389
sg7
F3.178071358283481
sg8
F0.5184971843377361
sa(dp1821
g5
F17.5
sg6
F-17.208851424872478
sg7
F3.141592653589793
sg8
F4.0
saa(lp1822
(dp1823
g5
F17.478555659195397
sg6
F-26.34131435048145
sg7
F3.2020231312874476
sg8
F0.6235465940893051
sa(dp1824
g5
F17.5
sg6
F-17.608851424872483
sg7
F3.141592653589793
sg8
F4.0
saa(lp1825
(dp1826
g5
F17.45477736430544
sg6
F-26.66210130709022
sg7
F3.2311676196414134
sg8
F0.7167312263152245
sa(dp1827
g5
F17.5
sg6
F-18.00885142487249
sg7
F3.141592653589793
sg8
F4.0
saa(lp1828
(dp1829
g5
F17.41678397039191
sg6
F-27.023393743254715
sg7
F3.2632681116374718
sg8
F0.7969530657488362
sa(dp1830
g5
F17.5
sg6
F-18.00885142487249
sg7
F3.141592653589793
sg8
F4.0
saa(lp1831
(dp1832
g5
F17.36230201344463
sg6
F-27.418278945695036
sg7
F3.2954219437013035
sg8
F0.8639863484012412
sa(dp1833
g5
F17.5
sg6
F-18.00885142487249
sg7
F3.141592653589793
sg8
F4.0
saa(lp1834
(dp1835
g5
F17.290818117317848
sg6
F-27.83996948245944
sg7
F3.324488539544385
sg8
F0.9181221359196222
sa(dp1836
g5
F17.5
sg6
F-18.408851424872495
sg7
F3.141592653589793
sg8
F4.0
saa(lp1837
(dp1838
g5
F17.20386382924806
sg6
F-28.282227422545027
sg7
F3.3474844619141453
sg8
F0.9598971298892329
sa(dp1839
g5
F17.5
sg6
F-18.8088514248725
sg7
F3.141592653589793
sg8
F4.0
saa(lp1840
(dp1841
g5
F17.104953558606002
sg6
F-28.739602835348357
sg7
F3.3618752791485766
sg8
F0.9898848546773558
sa(dp1842
g5
F17.5
sg6
F-19.208851424872506
sg7
F3.141592653589793
sg8
F4.0
saa(lp1843
(dp1844
g5
F16.999254116013113
sg6
F-29.20743317572359
sg7
F3.3657554605934457
sg8
F1.0085394076566843
sa(dp1845
g5
F17.5
sg6
F-19.608851424872512
sg7
F3.141592653589793
sg8
F4.0
saa(lp1846
(dp1847
g5
F16.8930833061068
sg6
F-29.681603279014183
sg7
F3.3579517162462045
sg8
F1.0160876494002375
sa(dp1848
g5
F17.5
sg6
F-20.008851424872518
sg7
F3.141592653589793
sg8
F4.0
saa(lp1849
(dp1850
g5
F16.793301522940276
sg6
F-30.158122337951816
sg7
F3.3380986875581513
sg8
F1.012468452761254
sa(dp1851
g5
F17.5
sg6
F-20.408851424872523
sg7
F3.141592653589793
sg8
F4.0
saa(lp1852
(dp1853
g5
F16.706614473899517
sg6
F-30.63261839077444
sg7
F3.306723264905041
sg8
F0.9973193865412938
sa(dp1854
g5
F17.5
sg6
F-20.80885142487253
sg7
F3.141592653589793
sg8
F4.0
saa(lp1855
(dp1856
g5
F16.638786614918626
sg6
F-31.099881258288544
sg7
F3.265342582758493
sg8
F0.9700123996841696
sa(dp1857
g5
F17.5
sg6
F-21.208851424872535
sg7
F3.141592653589793
sg8
F4.0
saa(lp1858
(dp1859
g5
F16.59379987373443
sg6
F-31.553597512445418
sg7
F3.2165347686672745
sg8
F0.929739907216024
sa(dp1860
g5
F17.5
sg6
F-21.60885142487254
sg7
F3.141592653589793
sg8
F4.0
saa(lp1861
(dp1862
g5
F16.57308300291162
sg6
F-31.986395940662092
sg7
F3.163889302717261
sg8
F0.87564966506154
sa(dp1863
g5
F17.5
sg6
F-22.008851424872546
sg7
F3.141592653589793
sg8
F4.0
saa(lp1864
(dp1865
g5
F16.57504312726145
sg6
F-32.39023228934008
sg7
F3.1117164996313793
sg8
F0.8070197560264434
sa(dp1866
g5
F17.5
sg6
F-22.40885142487255
sg7
F3.141592653589793
sg8
F4.0
saa(lp1867
(dp1868
g5
F16.59516228527955
sg6
F-32.75699511666187
sg7
F3.0644474956106755
sg8
F0.723454565465157
sa(dp1869
g5
F17.5
sg6
F-22.808851424872557
sg7
F3.141592653589793
sg8
F4.0
saa(lp1870
(dp1871
g5
F16.626787614892645
sg6
F-33.079093219271144
sg7
F3.0258129993132137
sg8
F0.6250729143276799
sa(dp1872
g5
F17.5
sg6
F-23.208851424872563
sg7
F3.141592653589793
sg8
F4.0
saa(lp1873
(dp1874
g5
F16.66246298717404
sg6
F-33.34980812216384
sg7
F2.998060343364878
sg8
F0.5126569668718431
sa(dp1875
g5
F17.5
sg6
F-23.208851424872563
sg7
F3.141592653589793
sg8
F4.0
saa(lp1876
(dp1877
g5
F16.695389960159623
sg6
F-33.563380027965714
sg7
F2.9814874731680385
sg8
F0.3877387956822952
sa(dp1878
g5
F17.5
sg6
F-23.208851424872563
sg7
F3.141592653589793
sg8
F4.0
saa(lp1879
(dp1880
g5
F16.720541560466177
sg6
F-33.714993562648665
sg7
F2.9744016641705096
sg8
F0.25261721009011673
sa(dp1881
g5
F17.5
sg6
F-23.208851424872563
sg7
F3.141592653589793
sg8
F4.0
saa(lp1882
(dp1883
g5
F16.735095938459303
sg6
F-33.80087221796976
sg7
F2.9734104691444676
sg8
F0.11031253168708309
sa(dp1884
g5
F17.5
sg6
F-23.208851424872563
sg7
F3.141592653589793
sg8
F4.0
saa(lp1885
(dp1886
g5
F16.738088089434495
sg6
F-33.818569816169095
sg7
F2.973881680159537
sg8
F-0.03552611820176655
sa(dp1887
g5
F17.5
sg6
F-23.208851424872563
sg7
F3.141592653589793
sg8
F4.0
saa(lp1888
(dp1889
g5
F16.729394892358112
sg6
F-33.767396721665364
sg7
F2.9704671790980415
sg8
F-0.18074962466520145
sa(dp1890
g5
F17.5
sg6
F-23.208851424872563
sg7
F3.141592653589793
sg8
F4.0
saa(lp1891
(dp1892
g5
F16.70834744344706
sg6
F-33.64886200481548
sg7
F2.9576831096849947
sg8
F-0.32087001414736066
sa(dp1893
g5
F17.5
sg6
F-23.208851424872563
sg7
F3.141592653589793
sg8
F4.0
saa(lp1894
(dp1895
g5
F16.672411176180947
sg6
F-33.46706946325245
sg7
F2.93060756981308
sg8
F-0.4512557926728182
sa(dp1896
g5
F17.5
sg6
F-23.208851424872563
sg7
F3.141592653589793
sg8
F4.0
saa(lp1897
(dp1898
g5
F16.616473929508487
sg6
F-33.229086177391984
sg7
F2.88575194441442
sg8
F-0.5673633053237224
sa(dp1899
g5
F17.5
sg6
F-23.208851424872563
sg7
F3.141592653589793
sg8
F4.0
saa(lp1900
(dp1901
g5
F16.53326592298559
sg6
F-32.94526433889854
sg7
F2.822026836859524
sg8
F-0.6649998811862017
sa(dp1902
g5
F17.5
sg6
F-23.208851424872563
sg7
F3.141592653589793
sg8
F4.0
saa(lp1903
(dp1904
g5
F16.41515890298089
sg6
F-32.629274536986784
sg7
F2.7414440841787338
sg8
F-0.740585285931719
sa(dp1905
g5
F17.5
sg6
F-23.208851424872563
sg7
F3.141592653589793
sg8
F4.0
saa(lp1906
(dp1907
g5
F16.256947675437296
sg6
F-32.297394951906256
sg7
F2.648988622624758
sg8
F-0.7913352242704699
sa(dp1908
g5
F17.5
sg6
F-23.208851424872563
sg7
F3.141592653589793
sg8
F4.0
saa(lp1909
(dp1910
g5
F16.05846120734012
sg6
F-31.966802328449372
sg7
F2.551316534575115
sg8
F-0.8153350802850352
sa(dp1911
g5
F17.5
sg6
F-23.208851424872563
sg7
F3.141592653589793
sg8
F4.0
saa(lp1912
(dp1913
g5
F15.825332056462875
sg6
F-31.65358313674803
sg7
F2.4524115500508743
sg8
F-0.8115608616191943
sa(dp1914
g5
F17.5
sg6
F-23.208851424872563
sg7
F3.141592653589793
sg8
F4.0
saa(lp1915
(dp1916
g5
F15.568183745098809
sg6
F-31.37112679460944
sg7
F2.3556294176249675
sg8
F-0.780010459720051
sa(dp1917
g5
F17.5
sg6
F-23.208851424872563
sg7
F3.141592653589793
sg8
F4.0
saa(lp1918
(dp1919
g5
F15.301510906226081
sg6
F-31.128898373570298
sg7
F2.2643493453960444
sg8
F-0.7210813026370213
sa(dp1920
g5
F17.5
sg6
F-23.208851424872563
sg7
F3.141592653589793
sg8
F4.0
saa(lp1921
(dp1922
g5
F15.042222627055278
sg6
F-30.931906981429464
sg7
F2.181844115701704
sg8
F-0.6357160576626306
sa(dp1923
g5
F17.5
sg6
F-23.208851424872563
sg7
F3.141592653589793
sg8
F4.0
saa(lp1924
(dp1925
g5
F14.807869924078032
sg6
F-30.78085799923925
sg7
F2.1114470542197754
sg8
F-0.5260057043743361
sa(dp1926
g5
F17.5
sg6
F-23.208851424872563
sg7
F3.141592653589793
sg8
F4.0
saa(lp1927
(dp1928
g5
F14.615111931138088
sg6
F-30.67216509622818
sg7
F2.063747476310933
sg8
F-0.39603990779472753
sa(dp1929
g5
F17.5
sg6
F-23.208851424872563
sg7
F3.141592653589793
sg8
F4.0
saa(lp1930
(dp1931
g5
F14.476988627147566
sg6
F-30.600633681456756
sg7
F2.0390343674684073
sg8
F-0.25207082324510655
sa(dp1932
g5
F17.5
sg6
F-23.208851424872563
sg7
F3.141592653589793
sg8
F4.0
saa(lp1933
(dp1934
g5
F14.401071532788935
sg6
F-30.562789580247458
sg7
F2.030905789345262
sg8
F-0.10137367011519881
sa(dp1935
g5
F17.5
sg6
F-23.208851424872563
sg7
F3.141592653589793
sg8
F4.0
saa(lp1936
(dp1937
g5
F14.389924862768616
sg6
F-30.557276408437957
sg7
F2.0305024587723883
sg8
F0.049558866443683285
sa(dp1938
g5
F17.5
sg6
F-23.208851424872563
sg7
F3.141592653589793
sg8
F4.0
saa(lp1939
(dp1940
g5
F14.443022515761408
sg6
F-30.58354103588797
sg7
F2.0287613300980065
sg8
F0.19726764715433093
sa(dp1941
g5
F17.5
sg6
F-23.208851424872563
sg7
F3.141592653589793
sg8
F4.0
saa(lp1942
(dp1943
g5
F14.55864127130495
sg6
F-30.639927565485777
sg7
F2.017320266011428
sg8
F0.3387137495935742
sa(dp1944
g5
F17.5
sg6
F-23.208851424872563
sg7
F3.141592653589793
sg8
F4.0
saa(lp1945
(dp1946
g5
F14.734359701457176
sg6
F-30.721545345962262
sg7
F1.9894501737556287
sg8
F0.46857021419354206
sa(dp1947
g5
F17.5
sg6
F-23.208851424872563
sg7
F3.141592653589793
sg8
F4.0
saa(lp1948
(dp1949
g5
F14.966682106603232
sg6
F-30.819096469093143
sg7
F1.9421403433807738
sg8
F0.5813122343299896
sa(dp1950
g5
F17.5
sg6
F-23.208851424872563
sg7
F3.141592653589793
sg8
F4.0
saa(lp1951
(dp1952
g5
F15.250252178270333
sg6
F-30.92007058716305
sg7
F1.8790071144039653
sg8
F0.6728998258366179
sa(dp1953
g5
F17.5
sg6
F-23.208851424872563
sg7
F3.141592653589793
sg8
F4.0
saa(lp1954
(dp1955
g5
F15.576939533326104
sg6
F-31.012614456168325
sg7
F1.8113840263815488
sg8
F0.7418583359708756
sa(dp1956
g5
F17.5
sg6
F-23.208851424872563
sg7
F3.141592653589793
sg8
F4.0
saa(lp1957
(dp1958
g5
F15.93610841100741
sg6
F-31.090336385955244
sg7
F1.7546668152130946
sg8
F0.7893147558427773
sa(dp1959
g5
F17.5
sg6
F-23.208851424872563
sg7
F3.141592653589793
sg8
F4.0
saa(lp1960
(dp1961
g5
F16.316667608476035
sg6
F-31.155088937825845
sg7
F1.7234204546269483
sg8
F0.8191365980635128
sa(dp1962
g5
F17.5
sg6
F-23.208851424872563
sg7
F3.141592653589793
sg8
F4.0
saa(lp1963
(dp1964
g5
F16.70947132171177
sg6
F-31.212193784371255
sg7
F1.7067471898623305
sg8
F0.834748630596428
sa(dp1965
g5
F17.5
sg6
F-23.208851424872563
sg7
F3.141592653589793
sg8
F4.0
saa(lp1966
(dp1967
g5
F17.107324904490167
sg6
F-31.264598538989038
sg7
F1.696759799805684
sg8
F0.837291545997688
sa(dp1968
g5
F17.5
sg6
F-23.208851424872563
sg7
F3.141592653589793
sg8
F4.0
saa(lp1969
(dp1970
g5
F17.503827212597887
sg6
F-31.31306859685634
sg7
F1.6881665918549709
sg8
F0.8270979166851892
sa(dp1971
g5
F17.5
sg6
F-23.208851424872563
sg7
F3.141592653589793
sg8
F4.0
saa(lp1972
(dp1973
g5
F17.89285423759973
sg6
F-31.357005999149276
sg7
F1.678492530279143
sg8
F0.8041517323010722
sa(dp1974
g5
F17.5
sg6
F-23.208851424872563
sg7
F3.141592653589793
sg8
F4.0
saa(lp1975
(dp1976
g5
F18.26825151868828
sg6
F-31.39555558170273
sg7
F1.6680025832623373
sg8
F0.7682274552132407
sa(dp1977
g5
F17.5
sg6
F-23.208851424872563
sg7
F3.141592653589793
sg8
F4.0
saa(lp1978
(dp1979
g5
F18.623665025412528
sg6
F-31.428503661401724
sg7
F1.658774086329297
sg8
F0.7190102446298694
sa(dp1980
g5
F17.5
sg6
F-23.208851424872563
sg7
F3.141592653589793
sg8
F4.0
saa(lp1981
(dp1982
g5
F18.95261053969202
sg6
F-31.455560949350346
sg7
F1.6474741921509646
sg8
F0.6562233740682344
sa(dp1983
g5
F17.5
sg6
F-23.208851424872563
sg7
F3.141592653589793
sg8
F4.0
saa(lp1984
(dp1985
g5
F19.24851855476412
sg6
F-31.47592951420663
sg7
F1.6324978760023625
sg8
F0.5796428181644018
sa(dp1986
g5
F17.5
sg6
F-23.208851424872563
sg7
F3.141592653589793
sg8
F4.0
saa(lp1987
(dp1988
g5
F19.504657252994754
sg6
F-31.489313633083796
sg7
F1.6149905957354884
sg8
F0.48905660011637647
sa(dp1989
g5
F17.5
sg6
F-23.208851424872563
sg7
F3.141592653589793
sg8
F4.0
saa(lp1990
(dp1991
g5
F19.714172299877603
sg6
F-31.4965349975686
sg7
F1.5975925834985807
sg8
F0.38444018615635617
sa(dp1992
g5
F17.5
sg6
F-23.208851424872563
sg7
F3.141592653589793
sg8
F4.0
saa(lp1993
(dp1994
g5
F19.870350709818965
sg6
F-31.499392004382155
sg7
F1.5831936232366077
sg8
F0.2664113460512211
sa(dp1995
g5
F17.5
sg6
F-23.208851424872563
sg7
F3.141592653589793
sg8
F4.0
saa(lp1996
(dp1997
g5
F19.96714379687387
sg6
F-31.5
sg7
F1.5739348208925816
sg8
F0.1369006956495196
sa(dp1998
g5
F17.5
sg6
F-23.208851424872563
sg7
F3.141592653589793
sg8
F4.0
saa(lp1999
(dp2000
g5
F19.96714379687387
sg6
F-31.5
sg7
F1.5739348208925816
sg8
F0.1369006956495196
sa(dp2001
g5
F17.5
sg6
F-23.60885142487257
sg7
F3.141592653589793
sg8
F4.0
saa(lp2002
(dp2003
g5
F19.96714379687387
sg6
F-31.5
sg7
F1.5739348208925816
sg8
F0.1369006956495196
sa(dp2004
g5
F17.5
sg6
F-24.008851424872574
sg7
F3.141592653589793
sg8
F4.0
saa(lp2005
(dp2006
g5
F19.96714379687387
sg6
F-31.5
sg7
F1.5739348208925816
sg8
F0.1369006956495196
sa(dp2007
g5
F17.5
sg6
F-24.40885142487258
sg7
F3.141592653589793
sg8
F4.0
saa(lp2008
(dp2009
g5
F19.96714379687387
sg6
F-31.5
sg7
F1.5739348208925816
sg8
F0.1369006956495196
sa(dp2010
g5
F17.5
sg6
F-24.808851424872586
sg7
F3.141592653589793
sg8
F4.0
saa(lp2011
(dp2012
g5
F19.96714379687387
sg6
F-31.5
sg7
F1.5739348208925816
sg8
F0.1369006956495196
sa(dp2013
g5
F17.5
sg6
F-25.20885142487259
sg7
F3.141592653589793
sg8
F4.0
saa(lp2014
(dp2015
g5
F19.96714379687387
sg6
F-31.5
sg7
F1.5739348208925816
sg8
F0.1369006956495196
sa(dp2016
g5
F17.5
sg6
F-25.608851424872597
sg7
F3.141592653589793
sg8
F4.0
saa(lp2017
(dp2018
g5
F19.96714379687387
sg6
F-31.5
sg7
F1.5739348208925816
sg8
F0.1369006956495196
sa(dp2019
g5
F17.5
sg6
F-25.608851424872597
sg7
F3.141592653589793
sg8
F0.0
saa(lp2020
(dp2021
g5
F19.96714379687387
sg6
F-31.5
sg7
F1.5739348208925816
sg8
F0.1369006956495196
sa(dp2022
g5
F17.5
sg6
F-25.5
sg7
F3.141592653589793
sg8
F-4.689080973262276e-40
saa(lp2023
(dp2024
g5
F19.96714379687387
sg6
F-31.5
sg7
F1.5739348208925816
sg8
F0.1369006956495196
sa(dp2025
g5
F17.5
sg6
F-25.513798075161553
sg7
F3.141759362146527
sg8
F0.05749191702392195
saa(lp2026
(dp2027
g5
F19.96714379687387
sg6
F-31.5
sg7
F1.5739348208925816
sg8
F0.1369006956495196
sa(dp2028
g5
F17.49997568331813
sg6
F-25.562350656559097
sg7
F3.142935073317755
sg8
F0.1448103098016554
saa(lp2029
(dp2030
g5
F19.96714379687387
sg6
F-31.5
sg7
F1.5739348208925816
sg8
F0.1369006956495196
sa(dp2031
g5
F17.49973294318003
sg6
F-25.655857858956793
sg7
F3.146307702274717
sg8
F0.24480392062077275
saa(lp2032
(dp2033
g5
F19.96714379687387
sg6
F-31.5
sg7
F1.5739348208925816
sg8
F0.1369006956495196
sa(dp2034
g5
F17.498670134836754
sg6
F-25.797876196931973
sg7
F3.152999719719783
sg8
F0.34695507755190863
saa(lp2035
(dp2036
g5
F19.96714379687387
sg6
F-31.5
sg7
F1.5739348208925816
sg8
F0.1369006956495196
sa(dp2037
g5
F17.495603593274822
sg6
F-25.987910938131005
sg7
F3.1637918538040486
sg8
F0.4449585637970494
saa(lp2038
(dp2039
g5
F19.96714379687387
sg6
F-31.5
sg7
F1.5739348208925816
sg8
F0.1369006956495196
sa(dp2040
g5
F17.488762324859827
sg6
F-26.22305096605516
sg7
F3.1789627606884343
sg8
F0.5352050666170778
saa(lp2041
(dp2042
g5
F19.96714379687387
sg6
F-31.5
sg7
F1.5739348208925816
sg8
F0.1369006956495196
sa(dp2043
g5
F17.475968121686854
sg6
F-26.49900175105088
sg7
F3.198234116977868
sg8
F0.615823765252809
saa(lp2044
(dp2045
g5
F19.96714379687387
sg6
F-31.5
sg7
F1.5739348208925816
sg8
F0.1369006956495196
sa(dp2046
g5
F17.454950035221287
sg6
F-26.81074871667185
sg7
F3.2208060202596887
sg8
F0.6860693354755711
saa(lp2047
(dp2048
g5
F19.96714379687387
sg6
F-31.5
sg7
F1.5739348208925816
sg8
F0.1369006956495196
sa(dp2049
g5
F17.423709807497136
sg6
F-27.153003848337928
sg7
F3.2454604712156603
sg8
F0.7459205198259267
saa(lp2050
(dp2051
g5
F19.96714379687387
sg6
F-31.5
sg7
F1.5739348208925816
sg8
F0.1369006956495196
sa(dp2052
g5
F17.380854220720803
sg6
F-27.520529113673142
sg7
F3.2707049154560672
sg8
F0.795808773894253
saa(lp2053
(dp2054
g5
F19.96714379687387
sg6
F-31.5
sg7
F1.5739348208925816
sg8
F0.1369006956495196
sa(dp2055
g5
F17.32583251979704
sg6
F-27.908382986259934
sg7
F3.2949263843692993
sg8
F0.8364276706289507
saa(lp2056
(dp2057
g5
F19.96714379687387
sg6
F-31.5
sg7
F1.5739348208925816
sg8
F0.1369006956495196
sa(dp2058
g5
F17.2590505296181
sg6
F-28.312102417479796
sg7
F3.31653126630439
sg8
F0.8685937502447538
saa(lp2059
(dp2060
g5
F19.96714379687387
sg6
F-31.5
sg7
F1.5739348208925816
sg8
F0.1369006956495196
sa(dp2061
g5
F17.181865701804064
sg6
F-28.727814701639005
sg7
F3.3340550555435184
sg8
F0.8931417526167784
saa(lp2062
(dp2063
g5
F19.96714379687387
sg6
F-31.5
sg7
F1.5739348208925816
sg8
F0.1369006956495196
sa(dp2064
g5
F17.09648961487808
sg6
F-29.15227063287507
sg7
F3.3462373679087523
sg8
F0.9108444976724881
saa(lp2065
(dp2066
g5
F19.96714379687387
sg6
F-31.5
sg7
F1.5739348208925816
sg8
F0.1369006956495196
sa(dp2067
g5
F17.005832354379542
sg6
F-29.582796795449095
sg7
F3.352066722860204
sg8
F0.9223519580311095
saa(lp2068
(dp2069
g5
F19.96714379687387
sg6
F-31.5
sg7
F1.5739348208925816
sg8
F0.1369006956495196
sa(dp2070
g5
F16.91331833198602
sg6
F-30.01717432880816
sg7
F3.3508051541491826
sg8
F0.9281465426972318
saa(lp2071
(dp2072
g5
F19.96714379687387
sg6
F-31.5
sg7
F1.5739348208925816
sg8
F0.1369006956495196
sa(dp2073
g5
F16.822690632108525
sg6
F-30.453459682532653
sg7
F3.3420044233306925
sg8
F0.9285130920167508
saa(lp2074
(dp2075
g5
F19.96714379687387
sg6
F-31.5
sg7
F1.5739348208925816
sg8
F0.1369006956495196
sa(dp2076
g5
F16.737806866772875
sg6
F-30.88976847542085
sg7
F3.325524250616068
sg8
F0.9235230651772516
saa(lp2077
(dp2078
g5
F19.96714379687387
sg6
F-31.5
sg7
F1.5739348208925816
sg8
F0.1369006956495196
sa(dp2079
g5
F16.66241880294235
sg6
F-31.324047570079355
sg7
F3.3015593687811107
sg8
F0.9130331346007733
saa(lp2080
(dp2081
g5
F19.96714379687387
sg6
F-31.5
sg7
F1.5739348208925816
sg8
F0.1369006956495196
sa(dp2082
g5
F16.599924411249397
sg6
F-31.753864232595152
sg7
F3.270676669435904
sg8
F0.8966989479670964
saa(lp2083
(dp2084
g5
F19.96714379687387
sg6
F-31.5
sg7
F1.5739348208925816
sg8
F0.1369006956495196
sa(dp2085
g5
F16.553087053112343
sg6
F-32.17624472620445
sg7
F3.2338562017172707
sg8
F0.8740050907034453
saa(lp2086
(dp2087
g5
F19.96714379687387
sg6
F-31.5
sg7
F1.5739348208925816
sg8
F0.1369006956495196
sa(dp2088
g5
F16.523733442650688
sg6
F-32.587595275601174
sg7
F3.1925201251641715
sg8
F0.8443119622835868
saa(lp2089
(dp2090
g5
F19.96714379687387
sg6
F-31.5
sg7
F1.5739348208925816
sg8
F0.1369006956495196
sa(dp2091
g5
F16.512467844561666
sg6
F-32.983731034210386
sg7
F3.148523633807286
sg8
F0.8069192163365574
saa(lp2092
(dp2093
g5
F19.96714379687387
sg6
F-31.5
sg7
F1.5739348208925816
sg8
F0.1369006956495196
sa(dp2094
g5
F16.5184668201184
sg6
F-33.36001872511422
sg7
F3.1040768351417753
sg8
F0.7611436838444549
saa(lp2095
(dp2096
g5
F19.96714379687387
sg6
F-31.5
sg7
F1.5739348208925816
sg8
F0.1369006956495196
sa(dp2097
g5
F16.539432156258233
sg6
F-33.711606836290606
sg7
F3.0615740049063316
sg8
F0.7064073877797443
saa(lp2098
(dp2099
g5
F19.96714379687387
sg6
F-31.5
sg7
F1.5739348208925816
sg8
F0.1369006956495196
sa(dp2100
g5
F16.571763376330306
sg6
F-34.03368516736782
sg7
F3.0233322903378292
sg8
F0.6423287112198081
saa(lp2101
(dp2102
g5
F19.96714379687387
sg6
F-31.5
sg7
F1.5739348208925816
sg8
F0.1369006956495196
sa(dp2103
g5
F16.6109598406971
sg6
F-34.32170343493352
sg7
F2.9912801778356806
sg8
F0.56880812701604
saa(lp2104
(dp2105
g5
F19.96714379687387
sg6
F-31.5
sg7
F1.5739348208925816
sg8
F0.1369006956495196
sa(dp2106
g5
F16.652191450797154
sg6
F-34.571501668149004
sg7
F2.9666656092715984
sg8
F0.4860999035112863
saa(lp2107
(dp2108
g5
F19.96714379687387
sg6
F-31.5
sg7
F1.5739348208925816
sg8
F0.1369006956495196
sa(dp2109
g5
F16.6909177761535
sg6
F-34.77935575471029
sg7
F2.9498549135822887
sg8
F0.39486145453657473
saa(lp2110
(dp2111
g5
F19.96714379687387
sg6
F-31.5
sg7
F1.5739348208925816
sg8
F0.1369006956495196
sa(dp2112
g5
F16.723414755816545
sg6
F-34.94198941634463
sg7
F2.9402611963715253
sg8
F0.2961736670968829
saa(lp2113
(dp2114
g5
F19.96714379687387
sg6
F-31.5
sg7
F1.5739348208925816
sg8
F0.1369006956495196
sa(dp2115
g5
F16.74709048096534
sg6
F-35.05661852297713
sg7
F2.9363972729267678
sg8
F0.1915282516452045
saa(lp2116
(dp2117
g5
F19.96714379687387
sg6
F-31.5
sg7
F1.5739348208925816
sg8
F0.1369006956495196
sa(dp2118
g5
F16.76052163792492
sg6
F-35.12106757243603
sg7
F2.9360198530506674
sg8
F0.08277852869236797
saa(lp2119
(dp2120
g5
F19.96714379687387
sg6
F-31.5
sg7
F1.5739348208925816
sg8
F0.1369006956495196
sa(dp2121
g5
F16.763201596176522
sg6
F-35.1339498579037
sg7
F2.9363271527665527
sg8
F-0.027953194185011146
saa(lp2122
(dp2123
g5
F19.96714379687387
sg6
F-31.5
sg7
F1.5739348208925816
sg8
F0.1369006956495196
sa(dp2124
g5
F16.75504849189011
sg6
F-35.09486004950246
sg7
F2.9341831253359674
sg8
F-0.13842586732242446
saa(lp2125
(dp2126
g5
F19.96714379687387
sg6
F-31.5
sg7
F1.5739348208925816
sg8
F0.1369006956495196
sa(dp2127
g5
F16.735773295075884
sg6
F-35.00452621425269
sg7
F2.9263560861466846
sg8
F-0.24643784311459524
saa(lp2128
(dp2129
g5
F19.96714379687387
sg6
F-31.5
sg7
F1.5739348208925816
sg8
F0.1369006956495196
sa(dp2130
g5
F16.70424596919775
sg6
F-34.86490992786105
sg7
F2.9097727070874697
sg8
F-0.3499435324747035
saa(lp2131
(dp2132
g5
F19.96714379687387
sg6
F-31.5
sg7
F1.5739348208925816
sg8
F0.1369006956495196
sa(dp2133
g5
F16.658011138729556
sg6
F-34.67928004334963
sg7
F2.881794511715316
sg8
F-0.4471435423969608
saa(lp2134
(dp2135
g5
F19.96714379687387
sg6
F-31.5
sg7
F1.5739348208925816
sg8
F0.1369006956495196
sa(dp2136
g5
F16.59309314439941
sg6
F-34.4522930056769
sg7
F2.8405134893780892
sg8
F-0.5365546541741733
saa(lp2137
(dp2138
g5
F19.96714379687387
sg6
F-31.5
sg7
F1.5739348208925816
sg8
F0.1369006956495196
sa(dp2139
g5
F16.504192642011734
sg6
F-34.190086419812076
sg7
F2.7850309948955125
sg8
F-0.6170585202664532
saa(lp2140
(dp2141
g5
F19.96714379687387
sg6
F-31.5
sg7
F1.5739348208925816
sg8
F0.1369006956495196
sa(dp2142
g5
F16.385300443114293
sg6
F-33.900334471055785
sg7
F2.7156367650277744
sg8
F-0.6879221371143664
saa(lp2143
(dp2144
g5
F19.96714379687387
sg6
F-31.5
sg7
F1.5739348208925816
sg8
F0.1369006956495196
sa(dp2145
g5
F16.230633073129535
sg6
F-33.59216029821748
sg7
F2.6337751755611234
sg8
F-0.7487808780987795
saa(lp2146
(dp2147
g5
F19.96714379687387
sg6
F-31.5
sg7
F1.5739348208925816
sg8
F0.1369006956495196
sa(dp2148
g5
F16.035660290136743
sg6
F-33.27581073162321
sg7
F2.541722848211545
sg8
F-0.799578087796179
saa(lp2149
(dp2150
g5
F19.96714379687387
sg6
F-31.5
sg7
F1.5739348208925816
sg8
F0.1369006956495196
sa(dp2151
g5
F15.797928410412645
sg6
F-32.96210265021769
sg7
F2.4420120299947454
sg8
F-0.8404637675663924
saa(lp2152
(dp2153
g5
F19.96714379687387
sg6
F-31.5
sg7
F1.5739348208925816
sg8
F0.1369006956495196
sa(dp2154
g5
F15.517620153669196
sg6
F-32.66162425408562
sg7
F2.337906274047076
sg8
F-0.8717250504992486
saa(lp2155
(dp2156
g5
F19.96714379687387
sg6
F-31.5
sg7
F1.5739348208925816
sg8
F0.1369006956495196
sa(dp2157
g5
F15.197404954645583
sg6
F-32.38409511906514
sg7
F2.230553928708541
sg8
F-0.893878999663762
saa(lp2158
(dp2159
g5
F19.96714379687387
sg6
F-31.5
sg7
F1.5739348208925816
sg8
F0.1369006956495196
sa(dp2160
g5
F14.841898817868044
sg6
F-32.13804205980393
sg7
F2.1210420590231482
sg8
F-0.9075783195357972
saa(lp2161
(dp2162
g5
F19.96714379687387
sg6
F-31.5
sg7
F1.5739348208925816
sg8
F0.1369006956495196
sa(dp2163
g5
F14.457579856217064
sg6
F-31.92986336085047
sg7
F2.0130635914219
sg8
F-0.913588778425875
saa(lp2164
(dp2165
g5
F19.96714379687387
sg6
F-31.5
sg7
F1.5739348208925816
sg8
F0.1369006956495196
sa(dp2166
g5
F14.052457715913558
sg6
F-31.7625075126117
sg7
F1.9120698772349067
sg8
F-0.9127782334229056
saa(lp2167
(dp2168
g5
F19.96714379687387
sg6
F-31.5
sg7
F1.5739348208925816
sg8
F0.1369006956495196
sa(dp2169
g5
F13.634918437036326
sg6
F-31.635192249854306
sg7
F1.8217822456150892
sg8
F-0.9060460247536112
saa(lp2170
(dp2171
g5
F19.96714379687387
sg6
F-31.5
sg7
F1.5739348208925816
sg8
F0.1369006956495196
sa(dp2172
g5
F13.212524354013539
sg6
F-31.544305920338612
sg7
F1.7441969493782512
sg8
F-0.8942079996575772
saa(lp2173
(dp2174
g5
F19.96714379687387
sg6
F-31.5
sg7
F1.5739348208925816
sg8
F0.1369006956495196
sa(dp2175
g5
F12.791440604354499
sg6
F-31.48454133414956
sg7
F1.6799646655710803
sg8
F-0.877889268312189
saa(lp2176
(dp2177
g5
F19.96714379687387
sg6
F-31.5
sg7
F1.5739348208925816
sg8
F0.1369006956495196
sa(dp2178
g5
F12.376403002646757
sg6
F-31.449888839971777
sg7
F1.6288287434735864
sg8
F-0.8574492510355302
saa(lp2179
(dp2180
g5
F19.96714379687387
sg6
F-31.5
sg7
F1.5739348208925816
sg8
F0.1369006956495196
sa(dp2181
g5
F11.971005932110817
sg6
F-31.434345307962875
sg7
F1.589972644310437
sg8
F-0.832944494838248
saa(lp2182
(dp2183
g5
F19.96714379687387
sg6
F-31.5
sg7
F1.5739348208925816
sg8
F0.1369006956495196
sa(dp2184
g5
F11.578113583358395
sg6
F-31.432353702763198
sg7
F1.5622461790949742
sg8
F-0.8041262019902475
saa(lp2185
(dp2186
g5
F19.96714379687387
sg6
F-31.5
sg7
F1.5739348208925816
sg8
F0.1369006956495196
sa(dp2187
g5
F11.200270383669228
sg6
F-31.439049028214175
sg7
F1.5442942402624593
sg8
F-0.770465890518477
saa(lp2188
(dp2189
g5
F19.96714379687387
sg6
F-31.5
sg7
F1.5739348208925816
sg8
F0.1369006956495196
sa(dp2190
g5
F10.840047805317518
sg6
F-31.450386544657007
sg7
F1.534624721235014
sg8
F-0.7312030963691556
saa(lp2191
(dp2192
g5
F19.96714379687387
sg6
F-31.5
sg7
F1.5739348208925816
sg8
F0.1369006956495196
sa(dp2193
g5
F10.50030180759941
sg6
F-31.463203709980515
sg7
F1.5316484471133978
sg8
F-0.6854106899131127
saa(lp2194
(dp2195
g5
F19.96714379687387
sg6
F-31.5
sg7
F1.5739348208925816
sg8
F0.1369006956495196
sa(dp2196
g5
F10.18433393183396
sg6
F-31.475238933926533
sg7
F1.5337172181790177
sg8
F-0.6320753858023967
saa(lp2197
(dp2198
g5
F19.96714379687387
sg6
F-31.5
sg7
F1.5739348208925816
sg8
F0.1369006956495196
sa(dp2199
g5
F9.895957951585281
sg6
F-31.485107663972013
sg7
F1.5391775876827412
sg8
F-0.5701932731663534
saa(lp2200
(dp2201
g5
F19.96714379687387
sg6
F-31.5
sg7
F1.5739348208925816
sg8
F0.1369006956495196
sa(dp2202
g5
F9.639478116216553
sg6
F-31.49222452589071
sg7
F1.5464478889032673
sg8
F-0.49888287762323263
saa(lp2203
(dp2204
g5
F19.96714379687387
sg6
F-31.5
sg7
F1.5739348208925816
sg8
F0.1369006956495196
sa(dp2205
g5
F9.419585414656947
sg6
F-31.49666148258923
sg7
F1.5541139738325922
sg8
F-0.4175222089040148
saa(lp2206
(dp2207
g5
F19.96714379687387
sg6
F-31.5
sg7
F1.5739348208925816
sg8
F0.1369006956495196
sa(dp2208
g5
F9.241173073969705
sg6
F-31.498945349838067
sg7
F1.561026291657764
sg8
F-0.3259226373434446
saa(lp2209
(dp2210
g5
F19.96714379687387
sg6
F-31.5
sg7
F1.5739348208925816
sg8
F0.1369006956495196
sa(dp2211
g5
F9.109059241342846
sg6
F-31.49981805889613
sg7
F1.5663709786620537
sg8
F-0.22456307385147586
saaa(lp2212
(lp2213
(dp2214
S'acc'
p2215
I0
sS'delta'
p2216
I0
sa(dp2217
g2215
I0
sg2216
I0
saa(lp2218
(dp2219
g2215
I0
sg2216
I0
sa(dp2220
g2215
I0
sg2216
I0
saa(lp2221
(dp2222
g2215
I0
sg2216
I0
sa(dp2223
g2215
I0
sg2216
I0
saa(lp2224
(dp2225
g2215
I0
sg2216
I0
sa(dp2226
g2215
I0
sg2216
I0
saa(lp2227
(dp2228
g2215
I0
sg2216
I0
sa(dp2229
g2215
I0
sg2216
I0
saa(lp2230
(dp2231
g2215
I0
sg2216
I0
sa(dp2232
g2215
I0
sg2216
I0
saa(lp2233
(dp2234
g2215
I0
sg2216
I0
sa(dp2235
g2215
I0
sg2216
I0
saa(lp2236
(dp2237
g2215
I0
sg2216
I0
sa(dp2238
g2215
I0
sg2216
I0
saa(lp2239
(dp2240
g2215
I0
sg2216
I0
sa(dp2241
g2215
I0
sg2216
I0
saa(lp2242
(dp2243
g2215
I0
sg2216
I0
sa(dp2244
g2215
I0
sg2216
I0
saa(lp2245
(dp2246
g2215
I0
sg2216
I0
sa(dp2247
g2215
I0
sg2216
I0
saa(lp2248
(dp2249
g2215
I0
sg2216
I0
sa(dp2250
g2215
I0
sg2216
I0
saa(lp2251
(dp2252
g2215
I0
sg2216
I0
sa(dp2253
g2215
I0
sg2216
I0
saa(lp2254
(dp2255
g2215
I0
sg2216
I0
sa(dp2256
g2215
I0
sg2216
I0
saa(lp2257
(dp2258
g2215
I0
sg2216
I0
sa(dp2259
g2215
I0
sg2216
I0
saa(lp2260
(dp2261
g2215
I0
sg2216
I0
sa(dp2262
g2215
I0
sg2216
I0
saa(lp2263
(dp2264
g2215
I0
sg2216
I0
sa(dp2265
g2215
I0
sg2216
I0
saa(lp2266
(dp2267
g2215
I0
sg2216
I0
sa(dp2268
g2215
I0
sg2216
I0
saa(lp2269
(dp2270
g2215
I0
sg2216
I0
sa(dp2271
g2215
I0
sg2216
I0
saa(lp2272
(dp2273
g2215
I0
sg2216
I0
sa(dp2274
g2215
I0
sg2216
I0
saa(lp2275
(dp2276
g2215
I0
sg2216
I0
sa(dp2277
g2215
I0
sg2216
I0
saa(lp2278
(dp2279
g2215
I0
sg2216
I0
sa(dp2280
g2215
I0
sg2216
I0
saa(lp2281
(dp2282
g2215
I0
sg2216
I0
sa(dp2283
g2215
I0
sg2216
I0
saa(lp2284
(dp2285
g2215
I0
sg2216
I0
sa(dp2286
g2215
I0
sg2216
I0
saa(lp2287
(dp2288
g2215
I0
sg2216
I0
sa(dp2289
g2215
I0
sg2216
I0
saa(lp2290
(dp2291
g2215
I0
sg2216
I0
sa(dp2292
g2215
I0
sg2216
I0
saa(lp2293
(dp2294
g2215
I0
sg2216
I0
sa(dp2295
g2215
I0
sg2216
I0
saa(lp2296
(dp2297
g2215
I0
sg2216
I0
sa(dp2298
g2215
I0
sg2216
I0
saa(lp2299
(dp2300
g2215
I0
sg2216
I0
sa(dp2301
g2215
I0
sg2216
I0
saa(lp2302
(dp2303
g2215
I0
sg2216
I0
sa(dp2304
g2215
I0
sg2216
I0
saa(lp2305
(dp2306
g2215
I0
sg2216
I0
sa(dp2307
g2215
I0
sg2216
I0
saa(lp2308
(dp2309
g2215
I0
sg2216
I0
sa(dp2310
g2215
I0
sg2216
I0
saa(lp2311
(dp2312
g2215
I0
sg2216
I0
sa(dp2313
g2215
I0
sg2216
I0
saa(lp2314
(dp2315
g2215
I0
sg2216
I0
sa(dp2316
g2215
I0
sg2216
I0
saa(lp2317
(dp2318
g2215
I0
sg2216
I0
sa(dp2319
g2215
I0
sg2216
I0
saa(lp2320
(dp2321
g2215
I0
sg2216
I0
sa(dp2322
g2215
I0
sg2216
I0
saa(lp2323
(dp2324
g2215
I0
sg2216
I0
sa(dp2325
g2215
I0
sg2216
I0
saa(lp2326
(dp2327
g2215
I0
sg2216
I0
sa(dp2328
g2215
I0
sg2216
I0
saa(lp2329
(dp2330
g2215
I0
sg2216
I0
sa(dp2331
g2215
I0
sg2216
I0
saa(lp2332
(dp2333
g2215
I0
sg2216
I0
sa(dp2334
g2215
I0
sg2216
I0
saa(lp2335
(dp2336
g2215
I0
sg2216
I0
sa(dp2337
g2215
I0
sg2216
I0
saa(lp2338
(dp2339
g2215
I0
sg2216
I0
sa(dp2340
g2215
I0
sg2216
I0
saa(lp2341
(dp2342
g2215
I0
sg2216
I0
sa(dp2343
g2215
I0
sg2216
I0
saa(lp2344
(dp2345
g2215
I0
sg2216
I0
sa(dp2346
g2215
I0
sg2216
I0
saa(lp2347
(dp2348
g2215
I0
sg2216
I0
sa(dp2349
g2215
I0
sg2216
I0
saa(lp2350
(dp2351
g2215
I0
sg2216
I0
sa(dp2352
g2215
I0
sg2216
I0
saa(lp2353
(dp2354
g2215
I0
sg2216
I0
sa(dp2355
g2215
I0
sg2216
I0
saa(lp2356
(dp2357
g2215
I0
sg2216
I0
sa(dp2358
g2215
I0
sg2216
I0
saa(lp2359
(dp2360
g2215
I0
sg2216
I0
sa(dp2361
g2215
I0
sg2216
I0
saa(lp2362
(dp2363
g2215
I0
sg2216
I0
sa(dp2364
g2215
I0
sg2216
I0
saa(lp2365
(dp2366
g2215
I0
sg2216
I0
sa(dp2367
g2215
I0
sg2216
I0
saa(lp2368
(dp2369
g2215
I0
sg2216
I0
sa(dp2370
g2215
I0
sg2216
I0
saa(lp2371
(dp2372
g2215
I0
sg2216
I0
sa(dp2373
g2215
I0
sg2216
I0
saa(lp2374
(dp2375
g2215
I0
sg2216
I0
sa(dp2376
g2215
I0
sg2216
I0
saa(lp2377
(dp2378
g2215
I0
sg2216
I0
sa(dp2379
g2215
I0
sg2216
I0
saa(lp2380
(dp2381
g2215
I0
sg2216
I0
sa(dp2382
g2215
I0
sg2216
I0
saa(lp2383
(dp2384
g2215
I0
sg2216
I0
sa(dp2385
g2215
I0
sg2216
I0
saa(lp2386
(dp2387
g2215
I0
sg2216
I0
sa(dp2388
g2215
I0
sg2216
I0
saa(lp2389
(dp2390
g2215
I0
sg2216
I0
sa(dp2391
g2215
I0
sg2216
I0
saa(lp2392
(dp2393
g2215
I0
sg2216
I0
sa(dp2394
g2215
I0
sg2216
I0
saa(lp2395
(dp2396
g2215
I0
sg2216
I0
sa(dp2397
g2215
I0
sg2216
I0
saa(lp2398
(dp2399
g2215
I0
sg2216
I0
sa(dp2400
g2215
I0
sg2216
I0
saa(lp2401
(dp2402
g2215
I0
sg2216
I0
sa(dp2403
g2215
I0
sg2216
I0
saa(lp2404
(dp2405
g2215
I0
sg2216
I0
sa(dp2406
g2215
I0
sg2216
I0
saa(lp2407
(dp2408
g2215
I0
sg2216
I0
sa(dp2409
g2215
I0
sg2216
I0
saa(lp2410
(dp2411
g2215
I0
sg2216
I0
sa(dp2412
g2215
I0
sg2216
I0
saa(lp2413
(dp2414
g2215
I0
sg2216
I0
sa(dp2415
g2215
I0
sg2216
I0
saa(lp2416
(dp2417
g2215
I0
sg2216
I0
sa(dp2418
g2215
I0
sg2216
I0
saa(lp2419
(dp2420
g2215
I0
sg2216
I0
sa(dp2421
g2215
I0
sg2216
I0
saa(lp2422
(dp2423
g2215
I0
sg2216
I0
sa(dp2424
g2215
I0
sg2216
I0
saa(lp2425
(dp2426
g2215
I0
sg2216
I0
sa(dp2427
g2215
I0
sg2216
I0
saa(lp2428
(dp2429
g2215
I0
sg2216
I0
sa(dp2430
g2215
I0
sg2216
I0
saa(lp2431
(dp2432
g2215
I0
sg2216
I0
sa(dp2433
g2215
I0
sg2216
I0
saa(lp2434
(dp2435
g2215
I0
sg2216
I0
sa(dp2436
g2215
I0
sg2216
I0
saa(lp2437
(dp2438
g2215
I0
sg2216
I0
sa(dp2439
g2215
I0
sg2216
I0
saa(lp2440
(dp2441
g2215
I0
sg2216
I0
sa(dp2442
g2215
I0
sg2216
I0
saa(lp2443
(dp2444
g2215
I0
sg2216
I0
sa(dp2445
g2215
I0
sg2216
I0
saa(lp2446
(dp2447
g2215
I0
sg2216
I0
sa(dp2448
g2215
I0
sg2216
I0
saa(lp2449
(dp2450
g2215
I0
sg2216
I0
sa(dp2451
g2215
I0
sg2216
I0
saa(lp2452
(dp2453
g2215
I0
sg2216
I0
sa(dp2454
g2215
I0
sg2216
I0
saa(lp2455
(dp2456
g2215
I0
sg2216
I0
sa(dp2457
g2215
I0
sg2216
I0
saa(lp2458
(dp2459
g2215
I0
sg2216
I0
sa(dp2460
g2215
I0
sg2216
I0
saa(lp2461
(dp2462
g2215
I0
sg2216
I0
sa(dp2463
g2215
I0
sg2216
I0
saa(lp2464
(dp2465
g2215
I0
sg2216
I0
sa(dp2466
g2215
I0
sg2216
I0
saa(lp2467
(dp2468
g2215
I0
sg2216
I0
sa(dp2469
g2215
I0
sg2216
I0
saa(lp2470
(dp2471
g2215
I0
sg2216
I0
sa(dp2472
g2215
I0
sg2216
I0
saa(lp2473
(dp2474
g2215
I0
sg2216
I0
sa(dp2475
g2215
I0
sg2216
I0
saa(lp2476
(dp2477
g2215
I0
sg2216
I0
sa(dp2478
g2215
I0
sg2216
I0
saa(lp2479
(dp2480
g2215
I0
sg2216
I0
sa(dp2481
g2215
I0
sg2216
I0
saa(lp2482
(dp2483
g2215
I0
sg2216
I0
sa(dp2484
g2215
I0
sg2216
I0
saa(lp2485
(dp2486
g2215
I0
sg2216
I0
sa(dp2487
g2215
I0
sg2216
I0
saa(lp2488
(dp2489
g2215
I0
sg2216
I0
sa(dp2490
g2215
I0
sg2216
I0
saa(lp2491
(dp2492
g2215
I0
sg2216
I0
sa(dp2493
g2215
I0
sg2216
I0
saa(lp2494
(dp2495
g2215
I0
sg2216
I0
sa(dp2496
g2215
I0
sg2216
I0
saa(lp2497
(dp2498
g2215
I0
sg2216
I0
sa(dp2499
g2215
I0
sg2216
I0
saa(lp2500
(dp2501
g2215
I0
sg2216
I0
sa(dp2502
g2215
I0
sg2216
I0
saa(lp2503
(dp2504
g2215
I0
sg2216
I0
sa(dp2505
g2215
I0
sg2216
I0
saa(lp2506
(dp2507
g2215
I0
sg2216
I0
sa(dp2508
g2215
I0
sg2216
I0
saa(lp2509
(dp2510
g2215
I0
sg2216
I0
sa(dp2511
g2215
I0
sg2216
I0
saa(lp2512
(dp2513
g2215
I0
sg2216
I0
sa(dp2514
g2215
I0
sg2216
I0
saa(lp2515
(dp2516
g2215
I0
sg2216
I0
sa(dp2517
g2215
I0
sg2216
I0
saa(lp2518
(dp2519
g2215
I0
sg2216
I0
sa(dp2520
g2215
I0
sg2216
I0
saa(lp2521
(dp2522
g2215
I0
sg2216
I0
sa(dp2523
g2215
I0
sg2216
I0
saa(lp2524
(dp2525
g2215
I0
sg2216
I0
sa(dp2526
g2215
I0
sg2216
I0
saa(lp2527
(dp2528
g2215
I0
sg2216
I0
sa(dp2529
g2215
I0
sg2216
I0
saa(lp2530
(dp2531
g2215
I0
sg2216
I0
sa(dp2532
g2215
I0
sg2216
I0
saa(lp2533
(dp2534
g2215
I0
sg2216
I0
sa(dp2535
g2215
I0
sg2216
I0
saa(lp2536
(dp2537
g2215
I0
sg2216
I0
sa(dp2538
g2215
I0
sg2216
I0
saa(lp2539
(dp2540
g2215
I0
sg2216
I0
sa(dp2541
g2215
I0
sg2216
I0
saa(lp2542
(dp2543
g2215
I0
sg2216
I0
sa(dp2544
g2215
I0
sg2216
I0
saa(lp2545
(dp2546
g2215
I0
sg2216
I0
sa(dp2547
g2215
I0
sg2216
I0
saa(lp2548
(dp2549
g2215
I0
sg2216
I0
sa(dp2550
g2215
I0
sg2216
I0
saa(lp2551
(dp2552
g2215
I0
sg2216
I0
sa(dp2553
g2215
I0
sg2216
I0
saa(lp2554
(dp2555
g2215
I0
sg2216
I0
sa(dp2556
g2215
I0
sg2216
I0
saa(lp2557
(dp2558
g2215
I0
sg2216
I0
sa(dp2559
g2215
I0
sg2216
I0
saa(lp2560
(dp2561
g2215
I0
sg2216
I0
sa(dp2562
g2215
I0
sg2216
I0
saa(lp2563
(dp2564
g2215
I0
sg2216
I0
sa(dp2565
g2215
I0
sg2216
I0
saa(lp2566
(dp2567
g2215
I0
sg2216
I0
sa(dp2568
g2215
I0
sg2216
I0
saa(lp2569
(dp2570
g2215
I0
sg2216
I0
sa(dp2571
g2215
I0
sg2216
I0
saa(lp2572
(dp2573
g2215
I0
sg2216
I0
sa(dp2574
g2215
I0
sg2216
I0
saa(lp2575
(dp2576
g2215
I0
sg2216
I0
sa(dp2577
g2215
I0
sg2216
I0
saa(lp2578
(dp2579
g2215
I0
sg2216
I0
sa(dp2580
g2215
I0
sg2216
I0
saa(lp2581
(dp2582
g2215
I0
sg2216
I0
sa(dp2583
g2215
I0
sg2216
I0
saa(lp2584
(dp2585
g2215
I0
sg2216
I0
sa(dp2586
g2215
I0
sg2216
I0
saa(lp2587
(dp2588
g2215
I0
sg2216
I0
sa(dp2589
g2215
I0
sg2216
I0
saa(lp2590
(dp2591
g2215
I0
sg2216
I0
sa(dp2592
g2215
I0
sg2216
I0
saa(lp2593
(dp2594
g2215
I0
sg2216
I0
sa(dp2595
g2215
I0
sg2216
I0
saa(lp2596
(dp2597
g2215
I0
sg2216
I0
sa(dp2598
g2215
I0
sg2216
I0
saa(lp2599
(dp2600
g2215
I0
sg2216
I0
sa(dp2601
g2215
I0
sg2216
I0
saa(lp2602
(dp2603
g2215
I0
sg2216
I0
sa(dp2604
g2215
I0
sg2216
I0
saa(lp2605
(dp2606
g2215
I0
sg2216
I0
sa(dp2607
g2215
I0
sg2216
I0
saa(lp2608
(dp2609
g2215
I0
sg2216
I0
sa(dp2610
g2215
I0
sg2216
I0
saa(lp2611
(dp2612
g2215
I0
sg2216
I0
sa(dp2613
g2215
I0
sg2216
I0
saa(lp2614
(dp2615
g2215
I0
sg2216
I0
sa(dp2616
g2215
I0
sg2216
I0
saa(lp2617
(dp2618
g2215
I0
sg2216
I0
sa(dp2619
g2215
I0
sg2216
I0
saa(lp2620
(dp2621
g2215
I0
sg2216
I0
sa(dp2622
g2215
I0
sg2216
I0
saa(lp2623
(dp2624
g2215
I0
sg2216
I0
sa(dp2625
g2215
I0
sg2216
I0
saa(lp2626
(dp2627
g2215
I0
sg2216
I0
sa(dp2628
g2215
I0
sg2216
I0
saa(lp2629
(dp2630
g2215
I0
sg2216
I0
sa(dp2631
g2215
I0
sg2216
I0
saa(lp2632
(dp2633
g2215
I0
sg2216
I0
sa(dp2634
g2215
I0
sg2216
I0
saa(lp2635
(dp2636
g2215
I0
sg2216
I0
sa(dp2637
g2215
I0
sg2216
I0
saa(lp2638
(dp2639
g2215
I0
sg2216
I0
sa(dp2640
g2215
I0
sg2216
I0
saa(lp2641
(dp2642
g2215
I0
sg2216
I0
sa(dp2643
g2215
I0
sg2216
I0
saa(lp2644
(dp2645
g2215
I0
sg2216
I0
sa(dp2646
g2215
I0
sg2216
I0
saa(lp2647
(dp2648
g2215
I0
sg2216
I0
sa(dp2649
g2215
I0
sg2216
I0
saa(lp2650
(dp2651
g2215
I0
sg2216
I0
sa(dp2652
g2215
I0
sg2216
I0
saa(lp2653
(dp2654
g2215
I0
sg2216
I0
sa(dp2655
g2215
I0
sg2216
I0
saa(lp2656
(dp2657
g2215
I0
sg2216
I0
sa(dp2658
g2215
I0
sg2216
I0
saa(lp2659
(dp2660
g2215
I0
sg2216
I0
sa(dp2661
g2215
I0
sg2216
I0
saa(lp2662
(dp2663
g2215
I0
sg2216
I0
sa(dp2664
g2215
I0
sg2216
I0
saa(lp2665
(dp2666
g2215
I0
sg2216
I0
sa(dp2667
g2215
I0
sg2216
I0
saa(lp2668
(dp2669
g2215
I0
sg2216
I0
sa(dp2670
g2215
I0
sg2216
I0
saa(lp2671
(dp2672
g2215
I0
sg2216
I0
sa(dp2673
g2215
I0
sg2216
I0
saa(lp2674
(dp2675
g2215
I0
sg2216
I0
sa(dp2676
g2215
I0
sg2216
I0
saa(lp2677
(dp2678
g2215
I0
sg2216
I0
sa(dp2679
g2215
I0
sg2216
I0
saa(lp2680
(dp2681
g2215
I0
sg2216
I0
sa(dp2682
g2215
I0
sg2216
I0
saa(lp2683
(dp2684
g2215
I0
sg2216
I0
sa(dp2685
g2215
I0
sg2216
I0
saa(lp2686
(dp2687
g2215
I0
sg2216
I0
sa(dp2688
g2215
I0
sg2216
I0
saa(lp2689
(dp2690
g2215
I0
sg2216
I0
sa(dp2691
g2215
I0
sg2216
I0
saa(lp2692
(dp2693
g2215
I0
sg2216
I0
sa(dp2694
g2215
I0
sg2216
I0
saa(lp2695
(dp2696
g2215
I0
sg2216
I0
sa(dp2697
g2215
I0
sg2216
I0
saa(lp2698
(dp2699
g2215
I0
sg2216
I0
sa(dp2700
g2215
I0
sg2216
I0
saa(lp2701
(dp2702
g2215
I0
sg2216
I0
sa(dp2703
g2215
I0
sg2216
I0
saa(lp2704
(dp2705
g2215
I0
sg2216
I0
sa(dp2706
g2215
I0
sg2216
I0
saa(lp2707
(dp2708
g2215
I0
sg2216
I0
sa(dp2709
g2215
I0
sg2216
I0
saa(lp2710
(dp2711
g2215
I0
sg2216
I0
sa(dp2712
g2215
I0
sg2216
I0
saa(lp2713
(dp2714
g2215
I0
sg2216
I0
sa(dp2715
g2215
I0
sg2216
I0
saa(lp2716
(dp2717
g2215
I0
sg2216
I0
sa(dp2718
g2215
I0
sg2216
I0
saa(lp2719
(dp2720
g2215
I0
sg2216
I0
sa(dp2721
g2215
I0
sg2216
I0
saa(lp2722
(dp2723
g2215
I0
sg2216
I0
sa(dp2724
g2215
I0
sg2216
I0
saa(lp2725
(dp2726
g2215
I0
sg2216
I0
sa(dp2727
g2215
I0
sg2216
I0
saa(lp2728
(dp2729
g2215
I0
sg2216
I0
sa(dp2730
g2215
I0
sg2216
I0
saa(lp2731
(dp2732
g2215
I0
sg2216
I0
sa(dp2733
g2215
I0
sg2216
I0
saa(lp2734
(dp2735
g2215
I0
sg2216
I0
sa(dp2736
g2215
I0
sg2216
I0
saa(lp2737
(dp2738
g2215
I0
sg2216
I0
sa(dp2739
g2215
I0
sg2216
I0
saa(lp2740
(dp2741
g2215
I0
sg2216
I0
sa(dp2742
g2215
I0
sg2216
I0
saa(lp2743
(dp2744
g2215
I0
sg2216
I0
sa(dp2745
g2215
I0
sg2216
I0
saa(lp2746
(dp2747
g2215
I0
sg2216
I0
sa(dp2748
g2215
I0
sg2216
I0
saa(lp2749
(dp2750
g2215
I0
sg2216
I0
sa(dp2751
g2215
I0
sg2216
I0
saa(lp2752
(dp2753
g2215
I0
sg2216
I0
sa(dp2754
g2215
I0
sg2216
I0
saa(lp2755
(dp2756
g2215
I0
sg2216
I0
sa(dp2757
g2215
I0
sg2216
I0
saa(lp2758
(dp2759
g2215
I0
sg2216
I0
sa(dp2760
g2215
I0
sg2216
I0
saa(lp2761
(dp2762
g2215
I0
sg2216
I0
sa(dp2763
g2215
I0
sg2216
I0
saa(lp2764
(dp2765
g2215
I0
sg2216
I0
sa(dp2766
g2215
I0
sg2216
I0
saa(lp2767
(dp2768
g2215
I0
sg2216
I0
sa(dp2769
g2215
I0
sg2216
I0
saa(lp2770
(dp2771
g2215
I0
sg2216
I0
sa(dp2772
g2215
I0
sg2216
I0
saa(lp2773
(dp2774
g2215
I0
sg2216
I0
sa(dp2775
g2215
I0
sg2216
I0
saa(lp2776
(dp2777
g2215
I0
sg2216
I0
sa(dp2778
g2215
I0
sg2216
I0
saa(lp2779
(dp2780
g2215
I0
sg2216
I0
sa(dp2781
g2215
I0
sg2216
I0
saa(lp2782
(dp2783
g2215
I0
sg2216
I0
sa(dp2784
g2215
I0
sg2216
I0
saa(lp2785
(dp2786
g2215
I0
sg2216
I0
sa(dp2787
g2215
I0
sg2216
I0
saa(lp2788
(dp2789
g2215
I0
sg2216
I0
sa(dp2790
g2215
I0
sg2216
I0
saa(lp2791
(dp2792
g2215
I0
sg2216
I0
sa(dp2793
g2215
I0
sg2216
I0
saa(lp2794
(dp2795
g2215
I0
sg2216
I0
sa(dp2796
g2215
I0
sg2216
I0
saa(lp2797
(dp2798
g2215
I0
sg2216
I0
sa(dp2799
g2215
I0
sg2216
I0
saa(lp2800
(dp2801
g2215
I0
sg2216
I0
sa(dp2802
g2215
I0
sg2216
I0
saa(lp2803
(dp2804
g2215
I0
sg2216
I0
sa(dp2805
g2215
I0
sg2216
I0
saa(lp2806
(dp2807
g2215
I0
sg2216
I0
sa(dp2808
g2215
I0
sg2216
I0
saa(lp2809
(dp2810
g2215
I0
sg2216
I0
sa(dp2811
g2215
I0
sg2216
I0
saa(lp2812
(dp2813
g2215
I0
sg2216
I0
sa(dp2814
g2215
I0
sg2216
I0
saa(lp2815
(dp2816
g2215
I0
sg2216
I0
sa(dp2817
g2215
I0
sg2216
I0
saa(lp2818
(dp2819
g2215
I0
sg2216
I0
sa(dp2820
g2215
I0
sg2216
I0
saa(lp2821
(dp2822
g2215
I0
sg2216
I0
sa(dp2823
g2215
I0
sg2216
I0
saa(lp2824
(dp2825
g2215
I0
sg2216
I0
sa(dp2826
g2215
I0
sg2216
I0
saa(lp2827
(dp2828
g2215
I0
sg2216
I0
sa(dp2829
g2215
I0
sg2216
I0
saa(lp2830
(dp2831
g2215
I0
sg2216
I0
sa(dp2832
g2215
I0
sg2216
I0
saa(lp2833
(dp2834
g2215
I0
sg2216
I0
sa(dp2835
g2215
I0
sg2216
I0
saa(lp2836
(dp2837
g2215
I0
sg2216
I0
sa(dp2838
g2215
I0
sg2216
I0
saa(lp2839
(dp2840
g2215
I0
sg2216
I0
sa(dp2841
g2215
I0
sg2216
I0
saa(lp2842
(dp2843
g2215
I0
sg2216
I0
sa(dp2844
g2215
I0
sg2216
I0
saa(lp2845
(dp2846
g2215
I0
sg2216
I0
sa(dp2847
g2215
I0
sg2216
I0
saa(lp2848
(dp2849
g2215
I0
sg2216
I0
sa(dp2850
g2215
I0
sg2216
I0
saa(lp2851
(dp2852
g2215
I0
sg2216
I0
sa(dp2853
g2215
I0
sg2216
I0
saa(lp2854
(dp2855
g2215
I0
sg2216
I0
sa(dp2856
g2215
I0
sg2216
I0
saa(lp2857
(dp2858
g2215
I0
sg2216
I0
sa(dp2859
g2215
I0
sg2216
I0
saa(lp2860
(dp2861
g2215
I0
sg2216
I0
sa(dp2862
g2215
I0
sg2216
I0
saa(lp2863
(dp2864
g2215
I0
sg2216
I0
sa(dp2865
g2215
I0
sg2216
I0
saa(lp2866
(dp2867
g2215
I0
sg2216
I0
sa(dp2868
g2215
I0
sg2216
I0
saa(lp2869
(dp2870
g2215
I0
sg2216
I0
sa(dp2871
g2215
I0
sg2216
I0
saa(lp2872
(dp2873
g2215
I0
sg2216
I0
sa(dp2874
g2215
I0
sg2216
I0
saa(lp2875
(dp2876
g2215
I0
sg2216
I0
sa(dp2877
g2215
I0
sg2216
I0
saa(lp2878
(dp2879
g2215
I0
sg2216
I0
sa(dp2880
g2215
I0
sg2216
I0
saa(lp2881
(dp2882
g2215
I0
sg2216
I0
sa(dp2883
g2215
I0
sg2216
I0
saa(lp2884
(dp2885
g2215
I0
sg2216
I0
sa(dp2886
g2215
I0
sg2216
I0
saa(lp2887
(dp2888
g2215
I0
sg2216
I0
sa(dp2889
g2215
I0
sg2216
I0
saa(lp2890
(dp2891
g2215
I0
sg2216
I0
sa(dp2892
g2215
I0
sg2216
I0
saa(lp2893
(dp2894
g2215
I0
sg2216
I0
sa(dp2895
g2215
I0
sg2216
I0
saa(lp2896
(dp2897
g2215
I0
sg2216
I0
sa(dp2898
g2215
I0
sg2216
I0
saa(lp2899
(dp2900
g2215
I0
sg2216
I0
sa(dp2901
g2215
I0
sg2216
I0
saa(lp2902
(dp2903
g2215
I0
sg2216
I0
sa(dp2904
g2215
I0
sg2216
I0
saa(lp2905
(dp2906
g2215
I0
sg2216
I0
sa(dp2907
g2215
I0
sg2216
I0
saa(lp2908
(dp2909
g2215
I0
sg2216
I0
sa(dp2910
g2215
I0
sg2216
I0
saa(lp2911
(dp2912
g2215
I0
sg2216
I0
sa(dp2913
g2215
I0
sg2216
I0
saa(lp2914
(dp2915
g2215
I0
sg2216
I0
sa(dp2916
g2215
I0
sg2216
I0
saa(lp2917
(dp2918
g2215
I0
sg2216
I0
sa(dp2919
g2215
I0
sg2216
I0
saa(lp2920
(dp2921
g2215
I0
sg2216
I0
sa(dp2922
g2215
I0
sg2216
I0
saa(lp2923
(dp2924
g2215
I0
sg2216
I0
sa(dp2925
g2215
I0
sg2216
I0
saa(lp2926
(dp2927
g2215
I0
sg2216
I0
sa(dp2928
g2215
I0
sg2216
I0
saa(lp2929
(dp2930
g2215
I0
sg2216
I0
sa(dp2931
g2215
I0
sg2216
I0
saa(lp2932
(dp2933
g2215
I0
sg2216
I0
sa(dp2934
g2215
I0
sg2216
I0
saa(lp2935
(dp2936
g2215
I0
sg2216
I0
sa(dp2937
g2215
I0
sg2216
I0
saa(lp2938
(dp2939
g2215
I0
sg2216
I0
sa(dp2940
g2215
I0
sg2216
I0
saa(lp2941
(dp2942
g2215
I0
sg2216
I0
sa(dp2943
g2215
I0
sg2216
I0
saa(lp2944
(dp2945
g2215
I0
sg2216
I0
sa(dp2946
g2215
I0
sg2216
I0
saa(lp2947
(dp2948
g2215
I0
sg2216
I0
sa(dp2949
g2215
I0
sg2216
I0
saa(lp2950
(dp2951
g2215
I0
sg2216
I0
sa(dp2952
g2215
I0
sg2216
I0
saa(lp2953
(dp2954
g2215
I0
sg2216
I0
sa(dp2955
g2215
I0
sg2216
I0
saa(lp2956
(dp2957
g2215
I0
sg2216
I0
sa(dp2958
g2215
I0
sg2216
I0
saa(lp2959
(dp2960
g2215
I0
sg2216
I0
sa(dp2961
g2215
I0
sg2216
I0
saa(lp2962
(dp2963
g2215
I0
sg2216
I0
sa(dp2964
g2215
I0
sg2216
I0
saa(lp2965
(dp2966
g2215
I0
sg2216
I0
sa(dp2967
g2215
I0
sg2216
I0
saa(lp2968
(dp2969
g2215
I0
sg2216
I0
sa(dp2970
g2215
I0
sg2216
I0
saa(lp2971
(dp2972
g2215
I0
sg2216
I0
sa(dp2973
g2215
I0
sg2216
I0
saa(lp2974
(dp2975
g2215
I0
sg2216
I0
sa(dp2976
g2215
I0
sg2216
I0
saa(lp2977
(dp2978
g2215
I0
sg2216
I0
sa(dp2979
g2215
I0
sg2216
I0
saa(lp2980
(dp2981
g2215
I0
sg2216
I0
sa(dp2982
g2215
I0
sg2216
I0
saa(lp2983
(dp2984
g2215
I0
sg2216
I0
sa(dp2985
g2215
I0
sg2216
I0
saa(lp2986
(dp2987
g2215
I0
sg2216
I0
sa(dp2988
g2215
I0
sg2216
I0
saa(lp2989
(dp2990
g2215
I0
sg2216
I0
sa(dp2991
g2215
I0
sg2216
I0
saa(lp2992
(dp2993
g2215
I0
sg2216
I0
sa(dp2994
g2215
I0
sg2216
I0
saa(lp2995
(dp2996
g2215
I0
sg2216
I0
sa(dp2997
g2215
I0
sg2216
I0
saa(lp2998
(dp2999
g2215
I0
sg2216
I0
sa(dp3000
g2215
I0
sg2216
I0
saa(lp3001
(dp3002
g2215
I0
sg2216
I0
sa(dp3003
g2215
I0
sg2216
I0
saa(lp3004
(dp3005
g2215
I0
sg2216
I0
sa(dp3006
g2215
I0
sg2216
I0
saa(lp3007
(dp3008
g2215
I0
sg2216
I0
sa(dp3009
g2215
I0
sg2216
I0
saa(lp3010
(dp3011
g2215
I0
sg2216
I0
sa(dp3012
g2215
I0
sg2216
I0
saa(lp3013
(dp3014
g2215
I0
sg2216
I0
sa(dp3015
g2215
I0
sg2216
I0
saa(lp3016
(dp3017
g2215
I0
sg2216
I0
sa(dp3018
g2215
I0
sg2216
I0
saa(lp3019
(dp3020
g2215
I0
sg2216
I0
sa(dp3021
g2215
I0
sg2216
I0
saa(lp3022
(dp3023
g2215
I0
sg2216
I0
sa(dp3024
g2215
I0
sg2216
I0
saa(lp3025
(dp3026
g2215
I0
sg2216
I0
sa(dp3027
g2215
I0
sg2216
I0
saa(lp3028
(dp3029
g2215
I0
sg2216
I0
sa(dp3030
g2215
I0
sg2216
I0
saa(lp3031
(dp3032
g2215
I0
sg2216
I0
sa(dp3033
g2215
I0
sg2216
I0
saa(lp3034
(dp3035
g2215
I0
sg2216
I0
sa(dp3036
g2215
I0
sg2216
I0
saa(lp3037
(dp3038
g2215
I0
sg2216
I0
sa(dp3039
g2215
I0
sg2216
I0
saa(lp3040
(dp3041
g2215
I0
sg2216
I0
sa(dp3042
g2215
I0
sg2216
I0
saa(lp3043
(dp3044
g2215
I0
sg2216
I0
sa(dp3045
g2215
I0
sg2216
I0
saa(lp3046
(dp3047
g2215
I0
sg2216
I0
sa(dp3048
g2215
I0
sg2216
I0
saa(lp3049
(dp3050
g2215
I0
sg2216
I0
sa(dp3051
g2215
I0
sg2216
I0
saa(lp3052
(dp3053
g2215
I0
sg2216
I0
sa(dp3054
g2215
I0
sg2216
I0
saa(lp3055
(dp3056
g2215
I0
sg2216
I0
sa(dp3057
g2215
I0
sg2216
I0
saa(lp3058
(dp3059
g2215
I0
sg2216
I0
sa(dp3060
g2215
I0
sg2216
I0
saa(lp3061
(dp3062
g2215
I0
sg2216
I0
sa(dp3063
g2215
I0
sg2216
I0
saa(lp3064
(dp3065
g2215
I0
sg2216
I0
sa(dp3066
g2215
I0
sg2216
I0
saa(lp3067
(dp3068
g2215
I0
sg2216
I0
sa(dp3069
g2215
I0
sg2216
I0
saa(lp3070
(dp3071
g2215
I0
sg2216
I0
sa(dp3072
g2215
I0
sg2216
I0
saa(lp3073
(dp3074
g2215
I0
sg2216
I0
sa(dp3075
g2215
I0
sg2216
I0
saa(lp3076
(dp3077
g2215
I0
sg2216
I0
sa(dp3078
g2215
I0
sg2216
I0
saa(lp3079
(dp3080
g2215
I0
sg2216
I0
sa(dp3081
g2215
I0
sg2216
I0
saa(lp3082
(dp3083
g2215
I0
sg2216
I0
sa(dp3084
g2215
I0
sg2216
I0
saa(lp3085
(dp3086
g2215
I0
sg2216
I0
sa(dp3087
g2215
I0
sg2216
I0
saa(lp3088
(dp3089
g2215
I0
sg2216
I0
sa(dp3090
g2215
I0
sg2216
I0
saa(lp3091
(dp3092
g2215
I0
sg2216
I0
sa(dp3093
g2215
I0
sg2216
I0
saa(lp3094
(dp3095
g2215
I0
sg2216
I0
sa(dp3096
g2215
I0
sg2216
I0
saa(lp3097
(dp3098
g2215
I0
sg2216
I0
sa(dp3099
g2215
I0
sg2216
I0
saa(lp3100
(dp3101
g2215
I0
sg2216
I0
sa(dp3102
g2215
I0
sg2216
I0
saa(lp3103
(dp3104
g2215
I0
sg2216
I0
sa(dp3105
g2215
I0
sg2216
I0
saa(lp3106
(dp3107
g2215
I0
sg2216
I0
sa(dp3108
g2215
I0
sg2216
I0
saa(lp3109
(dp3110
g2215
I0
sg2216
I0
sa(dp3111
g2215
I0
sg2216
I0
saa(lp3112
(dp3113
g2215
I0
sg2216
I0
sa(dp3114
g2215
I0
sg2216
I0
saa(lp3115
(dp3116
g2215
I0
sg2216
I0
sa(dp3117
g2215
I0
sg2216
I0
saa(lp3118
(dp3119
g2215
I0
sg2216
I0
sa(dp3120
g2215
I0
sg2216
I0
saa(lp3121
(dp3122
g2215
I0
sg2216
I0
sa(dp3123
g2215
I0
sg2216
I0
saa(lp3124
(dp3125
g2215
I0
sg2216
I0
sa(dp3126
g2215
I0
sg2216
I0
saa(lp3127
(dp3128
g2215
I0
sg2216
I0
sa(dp3129
g2215
I0
sg2216
I0
saa(lp3130
(dp3131
g2215
I0
sg2216
I0
sa(dp3132
g2215
I0
sg2216
I0
saa(lp3133
(dp3134
g2215
I0
sg2216
I0
sa(dp3135
g2215
I0
sg2216
I0
saa(lp3136
(dp3137
g2215
I0
sg2216
I0
sa(dp3138
g2215
I0
sg2216
I0
saa(lp3139
(dp3140
g2215
I0
sg2216
I0
sa(dp3141
g2215
I0
sg2216
I0
saa(lp3142
(dp3143
g2215
I0
sg2216
I0
sa(dp3144
g2215
I0
sg2216
I0
saa(lp3145
(dp3146
g2215
I0
sg2216
I0
sa(dp3147
g2215
I0
sg2216
I0
saa(lp3148
(dp3149
g2215
I0
sg2216
I0
sa(dp3150
g2215
I0
sg2216
I0
saa(lp3151
(dp3152
g2215
I0
sg2216
I0
sa(dp3153
g2215
I0
sg2216
I0
saa(lp3154
(dp3155
g2215
I0
sg2216
I0
sa(dp3156
g2215
I0
sg2216
I0
saa(lp3157
(dp3158
g2215
I0
sg2216
I0
sa(dp3159
g2215
I0
sg2216
I0
saa(lp3160
(dp3161
g2215
I0
sg2216
I0
sa(dp3162
g2215
I0
sg2216
I0
saa(lp3163
(dp3164
g2215
I0
sg2216
I0
sa(dp3165
g2215
I0
sg2216
I0
saa(lp3166
(dp3167
g2215
I0
sg2216
I0
sa(dp3168
g2215
I0
sg2216
I0
saa(lp3169
(dp3170
g2215
I0
sg2216
I0
sa(dp3171
g2215
I0
sg2216
I0
saa(lp3172
(dp3173
g2215
I0
sg2216
I0
sa(dp3174
g2215
I0
sg2216
I0
saa(lp3175
(dp3176
g2215
I0
sg2216
I0
sa(dp3177
g2215
I0
sg2216
I0
saa(lp3178
(dp3179
g2215
I0
sg2216
I0
sa(dp3180
g2215
I0
sg2216
I0
saa(lp3181
(dp3182
g2215
I0
sg2216
I0
sa(dp3183
g2215
I0
sg2216
I0
saa(lp3184
(dp3185
g2215
I0
sg2216
I0
sa(dp3186
g2215
I0
sg2216
I0
saa(lp3187
(dp3188
g2215
I0
sg2216
I0
sa(dp3189
g2215
I0
sg2216
I0
saa(lp3190
(dp3191
g2215
I0
sg2216
I0
sa(dp3192
g2215
I0
sg2216
I0
saa(lp3193
(dp3194
g2215
I0
sg2216
I0
sa(dp3195
g2215
I0
sg2216
I0
saa(lp3196
(dp3197
g2215
I0
sg2216
I0
sa(dp3198
g2215
I0
sg2216
I0
saa(lp3199
(dp3200
g2215
I0
sg2216
I0
sa(dp3201
g2215
I0
sg2216
I0
saa(lp3202
(dp3203
g2215
I0
sg2216
I0
sa(dp3204
g2215
I0
sg2216
I0
saa(lp3205
(dp3206
g2215
I0
sg2216
I0
sa(dp3207
g2215
I0
sg2216
I0
saa(lp3208
(dp3209
g2215
I0
sg2216
I0
sa(dp3210
g2215
I0
sg2216
I0
saa(lp3211
(dp3212
g2215
I0
sg2216
I0
sa(dp3213
g2215
I0
sg2216
I0
saa(lp3214
(dp3215
g2215
I0
sg2216
I0
sa(dp3216
g2215
I0
sg2216
I0
saa(lp3217
(dp3218
g2215
I0
sg2216
I0
sa(dp3219
g2215
I0
sg2216
I0
saa(lp3220
(dp3221
g2215
I0
sg2216
I0
sa(dp3222
g2215
I0
sg2216
I0
saa(lp3223
(dp3224
g2215
I0
sg2216
I0
sa(dp3225
g2215
I0
sg2216
I0
saa(lp3226
(dp3227
g2215
I0
sg2216
I0
sa(dp3228
g2215
I0
sg2216
I0
saa(lp3229
(dp3230
g2215
I0
sg2216
I0
sa(dp3231
g2215
I0
sg2216
I0
saa(lp3232
(dp3233
g2215
I0
sg2216
I0
sa(dp3234
g2215
I0
sg2216
I0
saa(lp3235
(dp3236
g2215
I0
sg2216
I0
sa(dp3237
g2215
I0
sg2216
I0
saa(lp3238
(dp3239
g2215
I0
sg2216
I0
sa(dp3240
g2215
I0
sg2216
I0
saa(lp3241
(dp3242
g2215
I0
sg2216
I0
sa(dp3243
g2215
I0
sg2216
I0
saa(lp3244
(dp3245
g2215
I0
sg2216
I0
sa(dp3246
g2215
I0
sg2216
I0
saa(lp3247
(dp3248
g2215
I0
sg2216
I0
sa(dp3249
g2215
I0
sg2216
I0
saa(lp3250
(dp3251
g2215
I0
sg2216
I0
sa(dp3252
g2215
I0
sg2216
I0
saa(lp3253
(dp3254
g2215
I0
sg2216
I0
sa(dp3255
g2215
I0
sg2216
I0
saa(lp3256
(dp3257
g2215
I0
sg2216
I0
sa(dp3258
g2215
I0
sg2216
I0
saa(lp3259
(dp3260
g2215
I0
sg2216
I0
sa(dp3261
g2215
I0
sg2216
I0
saa(lp3262
(dp3263
g2215
I0
sg2216
I0
sa(dp3264
g2215
I0
sg2216
I0
saa(lp3265
(dp3266
g2215
I0
sg2216
I0
sa(dp3267
g2215
I0
sg2216
I0
saa(lp3268
(dp3269
g2215
I0
sg2216
I0
sa(dp3270
g2215
I0
sg2216
I0
saa(lp3271
(dp3272
g2215
I0
sg2216
I0
sa(dp3273
g2215
I0
sg2216
I0
saa(lp3274
(dp3275
g2215
I0
sg2216
I0
sa(dp3276
g2215
I0
sg2216
I0
saa(lp3277
(dp3278
g2215
I0
sg2216
I0
sa(dp3279
g2215
I0
sg2216
I0
saa(lp3280
(dp3281
g2215
I0
sg2216
I0
sa(dp3282
g2215
I0
sg2216
I0
saa(lp3283
(dp3284
g2215
I0
sg2216
I0
sa(dp3285
g2215
I0
sg2216
I0
saa(lp3286
(dp3287
g2215
I0
sg2216
I0
sa(dp3288
g2215
I0
sg2216
I0
saa(lp3289
(dp3290
g2215
I0
sg2216
I0
sa(dp3291
g2215
I0
sg2216
I0
saa(lp3292
(dp3293
g2215
I0
sg2216
I0
sa(dp3294
g2215
I0
sg2216
I0
saa(lp3295
(dp3296
g2215
I0
sg2216
I0
sa(dp3297
g2215
I0
sg2216
I0
saa(lp3298
(dp3299
g2215
I0
sg2216
I0
sa(dp3300
g2215
I0
sg2216
I0
saa(lp3301
(dp3302
g2215
I0
sg2216
I0
sa(dp3303
g2215
I0
sg2216
I0
saa(lp3304
(dp3305
g2215
I0
sg2216
I0
sa(dp3306
g2215
I0
sg2216
I0
saa(lp3307
(dp3308
g2215
I0
sg2216
I0
sa(dp3309
g2215
I0
sg2216
I0
saa(lp3310
(dp3311
g2215
I0
sg2216
I0
sa(dp3312
g2215
I0
sg2216
I0
saa(lp3313
(dp3314
g2215
I0
sg2216
I0
sa(dp3315
g2215
I0
sg2216
I0
saa(lp3316
(dp3317
g2215
I0
sg2216
I0
sa(dp3318
g2215
I0
sg2216
I0
saa(lp3319
(dp3320
g2215
I0
sg2216
I0
sa(dp3321
g2215
I0
sg2216
I0
saa(lp3322
(dp3323
g2215
I0
sg2216
I0
sa(dp3324
g2215
I0
sg2216
I0
saa(lp3325
(dp3326
g2215
I0
sg2216
I0
sa(dp3327
g2215
I0
sg2216
I0
saa(lp3328
(dp3329
g2215
I0
sg2216
I0
sa(dp3330
g2215
I0
sg2216
I0
saa(lp3331
(dp3332
g2215
I0
sg2216
I0
sa(dp3333
g2215
I0
sg2216
I0
saa(lp3334
(dp3335
g2215
I0
sg2216
I0
sa(dp3336
g2215
I0
sg2216
I0
saa(lp3337
(dp3338
g2215
I0
sg2216
I0
sa(dp3339
g2215
I0
sg2216
I0
saa(lp3340
(dp3341
g2215
I0
sg2216
I0
sa(dp3342
g2215
I0
sg2216
I0
saa(lp3343
(dp3344
g2215
I0
sg2216
I0
sa(dp3345
g2215
I0
sg2216
I0
saa(lp3346
(dp3347
g2215
I0
sg2216
I0
sa(dp3348
g2215
I0
sg2216
I0
saa(lp3349
(dp3350
g2215
I0
sg2216
I0
sa(dp3351
g2215
I0
sg2216
I0
saa(lp3352
(dp3353
g2215
I0
sg2216
I0
sa(dp3354
g2215
I0
sg2216
I0
saa(lp3355
(dp3356
g2215
I0
sg2216
I0
sa(dp3357
g2215
I0
sg2216
I0
saa(lp3358
(dp3359
g2215
I0
sg2216
I0
sa(dp3360
g2215
I0
sg2216
I0
saa(lp3361
(dp3362
g2215
I0
sg2216
I0
sa(dp3363
g2215
I0
sg2216
I0
saa(lp3364
(dp3365
g2215
I0
sg2216
I0
sa(dp3366
g2215
I0
sg2216
I0
saa(lp3367
(dp3368
g2215
I0
sg2216
I0
sa(dp3369
g2215
I0
sg2216
I0
saa(lp3370
(dp3371
g2215
I0
sg2216
I0
sa(dp3372
g2215
I0
sg2216
I0
saa(lp3373
(dp3374
g2215
I0
sg2216
I0
sa(dp3375
g2215
I0
sg2216
I0
saa(lp3376
(dp3377
g2215
I0
sg2216
I0
sa(dp3378
g2215
I0
sg2216
I0
saa(lp3379
(dp3380
g2215
I0
sg2216
I0
sa(dp3381
g2215
I0
sg2216
I0
saa(lp3382
(dp3383
g2215
I0
sg2216
I0
sa(dp3384
g2215
I0
sg2216
I0
saa(lp3385
(dp3386
g2215
I0
sg2216
I0
sa(dp3387
g2215
I0
sg2216
I0
saa(lp3388
(dp3389
g2215
I0
sg2216
I0
sa(dp3390
g2215
I0
sg2216
I0
saa(lp3391
(dp3392
g2215
I0
sg2216
I0
sa(dp3393
g2215
I0
sg2216
I0
saa(lp3394
(dp3395
g2215
I0
sg2216
I0
sa(dp3396
g2215
I0
sg2216
I0
saa(lp3397
(dp3398
g2215
I0
sg2216
I0
sa(dp3399
g2215
I0
sg2216
I0
saa(lp3400
(dp3401
g2215
I0
sg2216
I0
sa(dp3402
g2215
I0
sg2216
I0
saa(lp3403
(dp3404
g2215
I0
sg2216
I0
sa(dp3405
g2215
I0
sg2216
I0
saa(lp3406
(dp3407
g2215
I0
sg2216
I0
sa(dp3408
g2215
I0
sg2216
I0
saa(lp3409
(dp3410
g2215
I0
sg2216
I0
sa(dp3411
g2215
I0
sg2216
I0
saa(lp3412
(dp3413
g2215
I0
sg2216
I0
sa(dp3414
g2215
I0
sg2216
I0
saa(lp3415
(dp3416
g2215
I0
sg2216
I0
sa(dp3417
g2215
I0
sg2216
I0
saa(lp3418
(dp3419
g2215
I0
sg2216
I0
sa(dp3420
g2215
I0
sg2216
I0
saa(lp3421
(dp3422
g2215
I0
sg2216
I0
sa(dp3423
g2215
I0
sg2216
I0
saa(lp3424
(dp3425
g2215
I0
sg2216
I0
sa(dp3426
g2215
I0
sg2216
I0
saa(lp3427
(dp3428
g2215
I0
sg2216
I0
sa(dp3429
g2215
I0
sg2216
I0
saa(lp3430
(dp3431
g2215
I0
sg2216
I0
sa(dp3432
g2215
I0
sg2216
I0
saa(lp3433
(dp3434
g2215
I0
sg2216
I0
sa(dp3435
g2215
I0
sg2216
I0
saa(lp3436
(dp3437
g2215
I0
sg2216
I0
sa(dp3438
g2215
I0
sg2216
I0
saa(lp3439
(dp3440
g2215
I0
sg2216
I0
sa(dp3441
g2215
I0
sg2216
I0
saa(lp3442
(dp3443
g2215
I0
sg2216
I0
sa(dp3444
g2215
I0
sg2216
I0
saa(lp3445
(dp3446
g2215
I0
sg2216
I0
sa(dp3447
g2215
I0
sg2216
I0
saa(lp3448
(dp3449
g2215
I0
sg2216
I0
sa(dp3450
g2215
I0
sg2216
I0
saa(lp3451
(dp3452
g2215
I0
sg2216
I0
sa(dp3453
g2215
I0
sg2216
I0
saa(lp3454
(dp3455
g2215
I0
sg2216
I0
sa(dp3456
g2215
I0
sg2216
I0
saa(lp3457
(dp3458
g2215
I0
sg2216
I0
sa(dp3459
g2215
I0
sg2216
I0
saa(lp3460
(dp3461
g2215
I0
sg2216
I0
sa(dp3462
g2215
I0
sg2216
I0
saa(lp3463
(dp3464
g2215
I0
sg2216
I0
sa(dp3465
g2215
I0
sg2216
I0
saa(lp3466
(dp3467
g2215
I0
sg2216
I0
sa(dp3468
g2215
I0
sg2216
I0
saa(lp3469
(dp3470
g2215
I0
sg2216
I0
sa(dp3471
g2215
I0
sg2216
I0
saa(lp3472
(dp3473
g2215
I0
sg2216
I0
sa(dp3474
g2215
I0
sg2216
I0
saa(lp3475
(dp3476
g2215
I0
sg2216
I0
sa(dp3477
g2215
I0
sg2216
I0
saa(lp3478
(dp3479
g2215
I0
sg2216
I0
sa(dp3480
g2215
I0
sg2216
I0
saa(lp3481
(dp3482
g2215
I0
sg2216
I0
sa(dp3483
g2215
I0
sg2216
I0
saa(lp3484
(dp3485
g2215
I0
sg2216
I0
sa(dp3486
g2215
I0
sg2216
I0
saa(lp3487
(dp3488
g2215
I0
sg2216
I0
sa(dp3489
g2215
I0
sg2216
I0
saa(lp3490
(dp3491
g2215
I0
sg2216
I0
sa(dp3492
g2215
I0
sg2216
I0
saa(lp3493
(dp3494
g2215
I0
sg2216
I0
sa(dp3495
g2215
I0
sg2216
I0
saa(lp3496
(dp3497
g2215
I0
sg2216
I0
sa(dp3498
g2215
I0
sg2216
I0
saa(lp3499
(dp3500
g2215
I0
sg2216
I0
sa(dp3501
g2215
I0
sg2216
I0
saa(lp3502
(dp3503
g2215
I0
sg2216
I0
sa(dp3504
g2215
I0
sg2216
I0
saa(lp3505
(dp3506
g2215
I0
sg2216
I0
sa(dp3507
g2215
I0
sg2216
I0
saa(lp3508
(dp3509
g2215
I0
sg2216
I0
sa(dp3510
g2215
I0
sg2216
I0
saa(lp3511
(dp3512
g2215
I0
sg2216
I0
sa(dp3513
g2215
I0
sg2216
I0
saa(lp3514
(dp3515
g2215
I0
sg2216
I0
sa(dp3516
g2215
I0
sg2216
I0
saa(lp3517
(dp3518
g2215
I0
sg2216
I0
sa(dp3519
g2215
I0
sg2216
I0
saa(lp3520
(dp3521
g2215
I0
sg2216
I0
sa(dp3522
g2215
I0
sg2216
I0
saa(lp3523
(dp3524
g2215
I0
sg2216
I0
sa(dp3525
g2215
I0
sg2216
I0
saa(lp3526
(dp3527
g2215
I0
sg2216
I0
sa(dp3528
g2215
I0
sg2216
I0
saa(lp3529
(dp3530
g2215
I0
sg2216
I0
sa(dp3531
g2215
I0
sg2216
I0
saa(lp3532
(dp3533
g2215
I0
sg2216
I0
sa(dp3534
g2215
I0
sg2216
I0
saa(lp3535
(dp3536
g2215
I0
sg2216
I0
sa(dp3537
g2215
I0
sg2216
I0
saa(lp3538
(dp3539
g2215
I0
sg2216
I0
sa(dp3540
g2215
I0
sg2216
I0
saa(lp3541
(dp3542
g2215
I0
sg2216
I0
sa(dp3543
g2215
I0
sg2216
I0
saa(lp3544
(dp3545
g2215
I0
sg2216
I0
sa(dp3546
g2215
I0
sg2216
I0
saa(lp3547
(dp3548
g2215
I0
sg2216
I0
sa(dp3549
g2215
I0
sg2216
I0
saa(lp3550
(dp3551
g2215
I0
sg2216
I0
sa(dp3552
g2215
I0
sg2216
I0
saa(lp3553
(dp3554
g2215
I0
sg2216
I0
sa(dp3555
g2215
I0
sg2216
I0
saa(lp3556
(dp3557
g2215
I0
sg2216
I0
sa(dp3558
g2215
I0
sg2216
I0
saa(lp3559
(dp3560
g2215
I0
sg2216
I0
sa(dp3561
g2215
I0
sg2216
I0
saa(lp3562
(dp3563
g2215
I0
sg2216
I0
sa(dp3564
g2215
I0
sg2216
I0
saa(lp3565
(dp3566
g2215
I0
sg2216
I0
sa(dp3567
g2215
I0
sg2216
I0
saa(lp3568
(dp3569
g2215
I0
sg2216
I0
sa(dp3570
g2215
I0
sg2216
I0
saa(lp3571
(dp3572
g2215
I0
sg2216
I0
sa(dp3573
g2215
I0
sg2216
I0
saa(lp3574
(dp3575
g2215
I0
sg2216
I0
sa(dp3576
g2215
I0
sg2216
I0
saa(lp3577
(dp3578
g2215
I0
sg2216
I0
sa(dp3579
g2215
I0
sg2216
I0
saa(lp3580
(dp3581
g2215
I0
sg2216
I0
sa(dp3582
g2215
I0
sg2216
I0
saa(lp3583
(dp3584
g2215
I0
sg2216
I0
sa(dp3585
g2215
I0
sg2216
I0
saa(lp3586
(dp3587
g2215
I0
sg2216
I0
sa(dp3588
g2215
I0
sg2216
I0
saa(lp3589
(dp3590
g2215
I0
sg2216
I0
sa(dp3591
g2215
I0
sg2216
I0
saa(lp3592
(dp3593
g2215
I0
sg2216
I0
sa(dp3594
g2215
I0
sg2216
I0
saa(lp3595
(dp3596
g2215
I0
sg2216
I0
sa(dp3597
g2215
I0
sg2216
I0
saa(lp3598
(dp3599
g2215
I0
sg2216
I0
sa(dp3600
g2215
I0
sg2216
I0
saa(lp3601
(dp3602
g2215
I0
sg2216
I0
sa(dp3603
g2215
I0
sg2216
I0
saa(lp3604
(dp3605
g2215
I0
sg2216
I0
sa(dp3606
g2215
I0
sg2216
I0
saa(lp3607
(dp3608
g2215
I0
sg2216
I0
sa(dp3609
g2215
I0
sg2216
I0
saa(lp3610
(dp3611
g2215
I0
sg2216
I0
sa(dp3612
g2215
I0
sg2216
I0
saa(lp3613
(dp3614
g2215
I0
sg2216
I0
sa(dp3615
g2215
I0
sg2216
I0
saa(lp3616
(dp3617
g2215
I0
sg2216
I0
sa(dp3618
g2215
I0
sg2216
I0
saa(lp3619
(dp3620
g2215
I0
sg2216
I0
sa(dp3621
g2215
I0
sg2216
I0
saa(lp3622
(dp3623
g2215
I0
sg2216
I0
sa(dp3624
g2215
I0
sg2216
I0
saa(lp3625
(dp3626
g2215
I0
sg2216
I0
sa(dp3627
g2215
I0
sg2216
I0
saa(lp3628
(dp3629
g2215
I0
sg2216
I0
sa(dp3630
g2215
I0
sg2216
I0
saa(lp3631
(dp3632
g2215
I0
sg2216
I0
sa(dp3633
g2215
I0
sg2216
I0
saa(lp3634
(dp3635
g2215
I0
sg2216
I0
sa(dp3636
g2215
I0
sg2216
I0
saa(lp3637
(dp3638
g2215
I0
sg2216
I0
sa(dp3639
g2215
I0
sg2216
I0
saa(lp3640
(dp3641
g2215
I0
sg2216
I0
sa(dp3642
g2215
I0
sg2216
I0
saa(lp3643
(dp3644
g2215
I0
sg2216
I0
sa(dp3645
g2215
I0
sg2216
I0
saa(lp3646
(dp3647
g2215
I0
sg2216
I0
sa(dp3648
g2215
I0
sg2216
I0
saa(lp3649
(dp3650
g2215
I0
sg2216
I0
sa(dp3651
g2215
I0
sg2216
I0
saa(lp3652
(dp3653
g2215
I0
sg2216
I0
sa(dp3654
g2215
I0
sg2216
I0
saa(lp3655
(dp3656
g2215
I0
sg2216
I0
sa(dp3657
g2215
I0
sg2216
I0
saa(lp3658
(dp3659
g2215
I0
sg2216
I0
sa(dp3660
g2215
I0
sg2216
I0
saa(lp3661
(dp3662
g2215
I0
sg2216
I0
sa(dp3663
g2215
I0
sg2216
I0
saa(lp3664
(dp3665
g2215
I0
sg2216
I0
sa(dp3666
g2215
I0
sg2216
I0
saa(lp3667
(dp3668
g2215
I0
sg2216
I0
sa(dp3669
g2215
I0
sg2216
I0
saa(lp3670
(dp3671
g2215
I0
sg2216
I0
sa(dp3672
g2215
I0
sg2216
I0
saa(lp3673
(dp3674
g2215
I0
sg2216
I0
sa(dp3675
g2215
I0
sg2216
I0
saa(lp3676
(dp3677
g2215
I0
sg2216
I0
sa(dp3678
g2215
I0
sg2216
I0
saa(lp3679
(dp3680
g2215
I0
sg2216
I0
sa(dp3681
g2215
I0
sg2216
I0
saa(lp3682
(dp3683
g2215
I0
sg2216
I0
sa(dp3684
g2215
I0
sg2216
I0
saa(lp3685
(dp3686
g2215
I0
sg2216
I0
sa(dp3687
g2215
I0
sg2216
I0
saa(lp3688
(dp3689
g2215
I0
sg2216
I0
sa(dp3690
g2215
I0
sg2216
I0
saa(lp3691
(dp3692
g2215
I0
sg2216
I0
sa(dp3693
g2215
I0
sg2216
I0
saa(lp3694
(dp3695
g2215
I0
sg2216
I0
sa(dp3696
g2215
I0
sg2216
I0
saa(lp3697
(dp3698
g2215
I0
sg2216
I0
sa(dp3699
g2215
I0
sg2216
I0
saa(lp3700
(dp3701
g2215
I0
sg2216
I0
sa(dp3702
g2215
I0
sg2216
I0
saa(lp3703
(dp3704
g2215
I0
sg2216
I0
sa(dp3705
g2215
I0
sg2216
I0
saa(lp3706
(dp3707
g2215
I0
sg2216
I0
sa(dp3708
g2215
I0
sg2216
I0
saa(lp3709
(dp3710
g2215
I0
sg2216
I0
sa(dp3711
g2215
I0
sg2216
I0
saa(lp3712
(dp3713
g2215
I0
sg2216
I0
sa(dp3714
g2215
I0
sg2216
I0
saa(lp3715
(dp3716
g2215
I0
sg2216
I0
sa(dp3717
g2215
I0
sg2216
I0
saa(lp3718
(dp3719
g2215
I0
sg2216
I0
sa(dp3720
g2215
I0
sg2216
I0
saa(lp3721
(dp3722
g2215
I0
sg2216
I0
sa(dp3723
g2215
I0
sg2216
I0
saa(lp3724
(dp3725
g2215
I0
sg2216
I0
sa(dp3726
g2215
I0
sg2216
I0
saa(lp3727
(dp3728
g2215
I0
sg2216
I0
sa(dp3729
g2215
I0
sg2216
I0
saa(lp3730
(dp3731
g2215
I0
sg2216
I0
sa(dp3732
g2215
I0
sg2216
I0
saa(lp3733
(dp3734
g2215
I0
sg2216
I0
sa(dp3735
g2215
I0
sg2216
I0
saa(lp3736
(dp3737
g2215
I0
sg2216
I0
sa(dp3738
g2215
I0
sg2216
I0
saa(lp3739
(dp3740
g2215
I0
sg2216
I0
sa(dp3741
g2215
I0
sg2216
I0
saa(lp3742
(dp3743
g2215
I0
sg2216
I0
sa(dp3744
g2215
I0
sg2216
I0
saa(lp3745
(dp3746
g2215
I0
sg2216
I0
sa(dp3747
g2215
I0
sg2216
I0
saa(lp3748
(dp3749
g2215
I0
sg2216
I0
sa(dp3750
g2215
I0
sg2216
I0
saa(lp3751
(dp3752
g2215
I0
sg2216
I0
sa(dp3753
g2215
I0
sg2216
I0
saa(lp3754
(dp3755
g2215
I0
sg2216
I0
sa(dp3756
g2215
I0
sg2216
I0
saa(lp3757
(dp3758
g2215
I0
sg2216
I0
sa(dp3759
g2215
I0
sg2216
I0
saa(lp3760
(dp3761
g2215
I0
sg2216
I0
sa(dp3762
g2215
I0
sg2216
I0
saa(lp3763
(dp3764
g2215
I0
sg2216
I0
sa(dp3765
g2215
I0
sg2216
I0
saa(lp3766
(dp3767
g2215
I0
sg2216
I0
sa(dp3768
g2215
I0
sg2216
I0
saa(lp3769
(dp3770
g2215
I0
sg2216
I0
sa(dp3771
g2215
I0
sg2216
I0
saa(lp3772
(dp3773
g2215
I0
sg2216
I0
sa(dp3774
g2215
I0
sg2216
I0
saa(lp3775
(dp3776
g2215
I0
sg2216
I0
sa(dp3777
g2215
I0
sg2216
I0
saa(lp3778
(dp3779
g2215
I0
sg2216
I0
sa(dp3780
g2215
I0
sg2216
I0
saa(lp3781
(dp3782
g2215
I0
sg2216
I0
sa(dp3783
g2215
I0
sg2216
I0
saa(lp3784
(dp3785
g2215
I0
sg2216
I0
sa(dp3786
g2215
I0
sg2216
I0
saa(lp3787
(dp3788
g2215
I0
sg2216
I0
sa(dp3789
g2215
I0
sg2216
I0
saa(lp3790
(dp3791
g2215
I0
sg2216
I0
sa(dp3792
g2215
I0
sg2216
I0
saa(lp3793
(dp3794
g2215
I0
sg2216
I0
sa(dp3795
g2215
I0
sg2216
I0
saa(lp3796
(dp3797
g2215
I0
sg2216
I0
sa(dp3798
g2215
I0
sg2216
I0
saa(lp3799
(dp3800
g2215
I0
sg2216
I0
sa(dp3801
g2215
I0
sg2216
I0
saa(lp3802
(dp3803
g2215
I0
sg2216
I0
sa(dp3804
g2215
I0
sg2216
I0
saa(lp3805
(dp3806
g2215
I0
sg2216
I0
sa(dp3807
g2215
I0
sg2216
I0
saa(lp3808
(dp3809
g2215
I0
sg2216
I0
sa(dp3810
g2215
I0
sg2216
I0
saa(lp3811
(dp3812
g2215
I0
sg2216
I0
sa(dp3813
g2215
I0
sg2216
I0
saa(lp3814
(dp3815
g2215
I0
sg2216
I0
sa(dp3816
g2215
I0
sg2216
I0
saa(lp3817
(dp3818
g2215
I0
sg2216
I0
sa(dp3819
g2215
I0
sg2216
I0
saa(lp3820
(dp3821
g2215
I0
sg2216
I0
sa(dp3822
g2215
I0
sg2216
I0
saa(lp3823
(dp3824
g2215
I0
sg2216
I0
sa(dp3825
g2215
I0
sg2216
I0
saa(lp3826
(dp3827
g2215
I0
sg2216
I0
sa(dp3828
g2215
I0
sg2216
I0
saa(lp3829
(dp3830
g2215
I0
sg2216
I0
sa(dp3831
g2215
I0
sg2216
I0
saa(lp3832
(dp3833
g2215
I0
sg2216
I0
sa(dp3834
g2215
I0
sg2216
I0
saa(lp3835
(dp3836
g2215
I0
sg2216
I0
sa(dp3837
g2215
I0
sg2216
I0
saa(lp3838
(dp3839
g2215
I0
sg2216
I0
sa(dp3840
g2215
I0
sg2216
I0
saa(lp3841
(dp3842
g2215
I0
sg2216
I0
sa(dp3843
g2215
I0
sg2216
I0
saa(lp3844
(dp3845
g2215
I0
sg2216
I0
sa(dp3846
g2215
I0
sg2216
I0
saa(lp3847
(dp3848
g2215
I0
sg2216
I0
sa(dp3849
g2215
I0
sg2216
I0
saa(lp3850
(dp3851
g2215
I0
sg2216
I0
sa(dp3852
g2215
I0
sg2216
I0
saa(lp3853
(dp3854
g2215
I0
sg2216
I0
sa(dp3855
g2215
I0
sg2216
I0
saa(lp3856
(dp3857
g2215
I0
sg2216
I0
sa(dp3858
g2215
I0
sg2216
I0
saa(lp3859
(dp3860
g2215
I0
sg2216
I0
sa(dp3861
g2215
I0
sg2216
I0
saa(lp3862
(dp3863
g2215
I0
sg2216
I0
sa(dp3864
g2215
I0
sg2216
I0
saa(lp3865
(dp3866
g2215
I0
sg2216
I0
sa(dp3867
g2215
I0
sg2216
I0
saa(lp3868
(dp3869
g2215
I0
sg2216
I0
sa(dp3870
g2215
I0
sg2216
I0
saa(lp3871
(dp3872
g2215
I0
sg2216
I0
sa(dp3873
g2215
I0
sg2216
I0
saa(lp3874
(dp3875
g2215
I0
sg2216
I0
sa(dp3876
g2215
I0
sg2216
I0
saa(lp3877
(dp3878
g2215
I0
sg2216
I0
sa(dp3879
g2215
I0
sg2216
I0
saa(lp3880
(dp3881
g2215
I0
sg2216
I0
sa(dp3882
g2215
I0
sg2216
I0
saa(lp3883
(dp3884
g2215
I0
sg2216
I0
sa(dp3885
g2215
I0
sg2216
I0
saa(lp3886
(dp3887
g2215
I0
sg2216
I0
sa(dp3888
g2215
I0
sg2216
I0
saa(lp3889
(dp3890
g2215
I0
sg2216
I0
sa(dp3891
g2215
I0
sg2216
I0
saa(lp3892
(dp3893
g2215
I0
sg2216
I0
sa(dp3894
g2215
I0
sg2216
I0
saa(lp3895
(dp3896
g2215
I0
sg2216
I0
sa(dp3897
g2215
I0
sg2216
I0
saa(lp3898
(dp3899
g2215
I0
sg2216
I0
sa(dp3900
g2215
I0
sg2216
I0
saa(lp3901
(dp3902
g2215
I0
sg2216
I0
sa(dp3903
g2215
I0
sg2216
I0
saa(lp3904
(dp3905
g2215
I0
sg2216
I0
sa(dp3906
g2215
I0
sg2216
I0
saa(lp3907
(dp3908
g2215
I0
sg2216
I0
sa(dp3909
g2215
I0
sg2216
I0
saa(lp3910
(dp3911
g2215
I0
sg2216
I0
sa(dp3912
g2215
I0
sg2216
I0
saa(lp3913
(dp3914
g2215
I0
sg2216
I0
sa(dp3915
g2215
I0
sg2216
I0
saa(lp3916
(dp3917
g2215
I0
sg2216
I0
sa(dp3918
g2215
I0
sg2216
I0
saa(lp3919
(dp3920
g2215
I0
sg2216
I0
sa(dp3921
g2215
I0
sg2216
I0
saa(lp3922
(dp3923
g2215
I0
sg2216
I0
sa(dp3924
g2215
I0
sg2216
I0
saa(lp3925
(dp3926
g2215
I0
sg2216
I0
sa(dp3927
g2215
I0
sg2216
I0
saa(lp3928
(dp3929
g2215
I0
sg2216
I0
sa(dp3930
g2215
I0
sg2216
I0
saa(lp3931
(dp3932
g2215
I0
sg2216
I0
sa(dp3933
g2215
I0
sg2216
I0
saa(lp3934
(dp3935
g2215
I0
sg2216
I0
sa(dp3936
g2215
I0
sg2216
I0
saa(lp3937
(dp3938
g2215
I0
sg2216
I0
sa(dp3939
g2215
I0
sg2216
I0
saa(lp3940
(dp3941
g2215
I0
sg2216
I0
sa(dp3942
g2215
I0
sg2216
I0
saa(lp3943
(dp3944
g2215
I0
sg2216
I0
sa(dp3945
g2215
I0
sg2216
I0
saa(lp3946
(dp3947
g2215
I0
sg2216
I0
sa(dp3948
g2215
I0
sg2216
I0
saa(lp3949
(dp3950
g2215
I0
sg2216
I0
sa(dp3951
g2215
I0
sg2216
I0
saa(lp3952
(dp3953
g2215
I0
sg2216
I0
sa(dp3954
g2215
I0
sg2216
I0
saa(lp3955
(dp3956
g2215
I0
sg2216
I0
sa(dp3957
g2215
I0
sg2216
I0
saa(lp3958
(dp3959
g2215
I0
sg2216
I0
sa(dp3960
g2215
I0
sg2216
I0
saa(lp3961
(dp3962
g2215
I0
sg2216
I0
sa(dp3963
g2215
I0
sg2216
I0
saa(lp3964
(dp3965
g2215
I0
sg2216
I0
sa(dp3966
g2215
I0
sg2216
I0
saa(lp3967
(dp3968
g2215
I0
sg2216
I0
sa(dp3969
g2215
I0
sg2216
I0
saa(lp3970
(dp3971
g2215
I0
sg2216
I0
sa(dp3972
g2215
I0
sg2216
I0
saa(lp3973
(dp3974
g2215
I0
sg2216
I0
sa(dp3975
g2215
I0
sg2216
I0
saa(lp3976
(dp3977
g2215
I0
sg2216
I0
sa(dp3978
g2215
I0
sg2216
I0
saa(lp3979
(dp3980
g2215
I0
sg2216
I0
sa(dp3981
g2215
I0
sg2216
I0
saa(lp3982
(dp3983
g2215
I0
sg2216
I0
sa(dp3984
g2215
I0
sg2216
I0
saa(lp3985
(dp3986
g2215
I0
sg2216
I0
sa(dp3987
g2215
I0
sg2216
I0
saa(lp3988
(dp3989
g2215
I0
sg2216
I0
sa(dp3990
g2215
I0
sg2216
I0
saa(lp3991
(dp3992
g2215
I0
sg2216
I0
sa(dp3993
g2215
I0
sg2216
I0
saa(lp3994
(dp3995
g2215
I0
sg2216
I0
sa(dp3996
g2215
I0
sg2216
I0
saa(lp3997
(dp3998
g2215
I0
sg2216
I0
sa(dp3999
g2215
I0
sg2216
I0
saa(lp4000
(dp4001
g2215
I0
sg2216
I0
sa(dp4002
g2215
I0
sg2216
I0
saa(lp4003
(dp4004
g2215
I0
sg2216
I0
sa(dp4005
g2215
I0
sg2216
I0
saa(lp4006
(dp4007
g2215
I0
sg2216
I0
sa(dp4008
g2215
I0
sg2216
I0
saa(lp4009
(dp4010
g2215
I0
sg2216
I0
sa(dp4011
g2215
I0
sg2216
I0
saa(lp4012
(dp4013
g2215
F0.13861911115166686
sg2216
F0.04712602418735922
sa(dp4014
g2215
I0
sg2216
I0
saa(lp4015
(dp4016
g2215
F0.21147281630082457
sg2216
F0.09411485531288084
sa(dp4017
g2215
I0
sg2216
I0
saa(lp4018
(dp4019
g2215
F0.2429882089546027
sg2216
F0.13897626979465433
sa(dp4020
g2215
I0
sg2216
I0
saa(lp4021
(dp4022
g2215
F0.24866453947748798
sg2216
F0.17884499982712687
sa(dp4023
g2215
I0
sg2216
I0
saa(lp4024
(dp4025
g2215
F0.23845660232858407
sg2216
F0.2106664072517749
sa(dp4026
g2215
I0
sg2216
I0
saa(lp4027
(dp4028
g2215
F0.21885269605489152
sg2216
F0.2317053498421697
sa(dp4029
g2215
I0
sg2216
I0
saa(lp4030
(dp4031
g2215
F0.19413443675461836
sg2216
F0.23992028528561962
sa(dp4032
g2215
I0
sg2216
I0
saa(lp4033
(dp4034
g2215
F0.1671286481670717
sg2216
F0.23419897268633336
sa(dp4035
g2215
I0
sg2216
I0
saa(lp4036
(dp4037
g2215
F0.13965251845376783
sg2216
F0.2144380321983529
sa(dp4038
g2215
I0
sg2216
I0
saa(lp4039
(dp4040
g2215
F0.11278276650455375
sg2216
F0.18147121068479857
sa(dp4041
g2215
I0
sg2216
I0
saa(lp4042
(dp4043
g2215
F0.0870311416270436
sg2216
F0.1368920102291681
sa(dp4044
g2215
I0
sg2216
I0
saa(lp4045
(dp4046
g2215
F0.062474357866011396
sg2216
F0.08284309899436952
sa(dp4047
g2215
I0
sg2216
I0
saa(lp4048
(dp4049
g2215
F0.03886360925663224
sg2216
F0.021839733190727344
sa(dp4050
g2215
I0
sg2216
I0
saa(lp4051
(dp4052
g2215
F0.015725486320745576
sg2216
F-0.0433349266597076
sa(dp4053
g2215
I0
sg2216
I0
saa(lp4054
(dp4055
g2215
F-0.007539984697368114
sg2216
F-0.10965945040638425
sa(dp4056
g2215
I0
sg2216
I0
saa(lp4057
(dp4058
g2215
F-0.031560519881005965
sg2216
F-0.1738540221710962
sa(dp4059
g2215
I0
sg2216
I0
saa(lp4060
(dp4061
g2215
F-0.056889493324619685
sg2216
F-0.23235726792587563
sa(dp4062
g2215
I0
sg2216
I0
saa(lp4063
(dp4064
g2215
F-0.08390093361159848
sg2216
F-0.2813633590771772
sa(dp4065
g2215
I0
sg2216
I0
saa(lp4066
(dp4067
g2215
F-0.11268788043422542
sg2216
F-0.31698943736318924
sa(dp4068
g2215
I0
sg2216
I0
saa(lp4069
(dp4070
g2215
F-0.14297881975589594
sg2216
F-0.3356203686228827
sa(dp4071
g2215
I0
sg2216
I0
saa(lp4072
(dp4073
g2215
F-0.17409395534852234
sg2216
F-0.3344085339876621
sa(dp4074
g2215
I0
sg2216
I0
saa(lp4075
(dp4076
g2215
F-0.2049615475678296
sg2216
F-0.31179274203415813
sa(dp4077
g2215
I0
sg2216
I0
saa(lp4078
(dp4079
g2215
F-0.23419963271052446
sg2216
F-0.26782789186909756
sa(dp4080
g2215
I0
sg2216
I0
saa(lp4081
(dp4082
g2215
F-0.2602459034822963
sg2216
F-0.20418391239059588
sa(dp4083
g2215
I0
sg2216
I0
saa(lp4084
(dp4085
g2215
F-0.2815029934198972
sg2216
F-0.1238487252984684
sa(dp4086
g2215
I0
sg2216
I0
saa(lp4087
(dp4088
g2215
F-0.29646775363497957
sg2216
F-0.03071510433489171
sa(dp4089
g2215
I0
sg2216
I0
saa(lp4090
(dp4091
g2215
F-0.3038301861253762
sg2216
F0.07076507730710864
sa(dp4092
g2215
I0
sg2216
I0
saa(lp4093
(dp4094
g2215
F-0.30254863873324106
sg2216
F0.17577859660150771
sa(dp4095
g2215
I0
sg2216
I0
saa(lp4096
(dp4097
g2215
F-0.29191715672608964
sg2216
F0.27922229627929585
sa(dp4098
g2215
I0
sg2216
I0
saa(lp4099
(dp4100
g2215
F-0.27163673955898776
sg2216
F0.3757513815678494
sa(dp4101
g2215
I0
sg2216
I0
saa(lp4102
(dp4103
g2215
F-0.24189038506709223
sg2216
F0.4599618896751181
sa(dp4104
g2215
I0
sg2216
I0
saa(lp4105
(dp4106
g2215
F-0.20340930912039107
sg2216
F0.5268797900973091
sa(dp4107
g2215
I0
sg2216
I0
saa(lp4108
(dp4109
g2215
F-0.1574694198670599
sg2216
F0.5728284006070852
sa(dp4110
g2215
I0
sg2216
I0
saa(lp4111
(dp4112
g2215
F-0.10572892181233062
sg2216
F0.5964696438060411
sa(dp4113
g2215
I0
sg2216
I0
saa(lp4114
(dp4115
g2215
F-0.04999964498742345
sg2216
F0.5998420487334724
sa(dp4116
g2215
I0
sg2216
I0
saa(lp4117
(dp4118
g2215
F0.007862946897782545
sg2216
F0.5998578186850879
sa(dp4119
g2215
I0
sg2216
I0
saa(lp4120
(dp4121
g2215
F0.06572993159668596
sg2216
F0.5999765744305116
sa(dp4122
g2215
I0
sg2216
I0
saa(lp4123
(dp4124
g2215
F0.12276894210412845
sg2216
F0.5999762005455106
sa(dp4125
g2215
I0
sg2216
I0
saa(lp4126
(dp4127
g2215
F0.17784406458078775
sg2216
F0.5999737908679269
sa(dp4128
g2215
I0
sg2216
I0
saa(lp4129
(dp4130
g2215
F0.2285629844000075
sg2216
F0.598350168183601
sa(dp4131
g2215
I0
sg2216
I0
saa(lp4132
(dp4133
g2215
F0.2707617781350179
sg2216
F0.5270702336716598
sa(dp4134
g2215
I0
sg2216
I0
saa(lp4135
(dp4136
g2215
F0.2999352626231063
sg2216
F0.405231209016429
sa(dp4137
g2215
I0
sg2216
I0
saa(lp4138
(dp4139
g2215
F0.313952056734755
sg2216
F0.253177336483693
sa(dp4140
g2215
I0
sg2216
I0
saa(lp4141
(dp4142
g2215
F0.31444243833860697
sg2216
F0.08734797728921417
sa(dp4143
g2215
I0
sg2216
I0
saa(lp4144
(dp4145
g2215
F0.30772628771503535
sg2216
F-0.07919210660340614
sa(dp4146
g2215
I0
sg2216
I0
saa(lp4147
(dp4148
g2215
F0.29467905567953356
sg2216
F-0.23567956847340935
sa(dp4149
g2215
I0
sg2216
I0
saa(lp4150
(dp4151
g2215
F0.2705340034281825
sg2216
F-0.3704548228240594
sa(dp4152
g2215
I0
sg2216
I0
saa(lp4153
(dp4154
g2215
F0.23487895004729298
sg2216
F-0.46918993964172745
sa(dp4155
g2215
I0
sg2216
I0
saa(lp4156
(dp4157
g2215
F0.19080727225219177
sg2216
F-0.5152640268850214
sa(dp4158
g2215
I0
sg2216
I0
saa(lp4159
(dp4160
g2215
F0.14366340462551191
sg2216
F-0.49337463198406883
sa(dp4161
g2215
I0
sg2216
I0
saa(lp4162
(dp4163
g2215
F0.09886743255997685
sg2216
F-0.3948351561119487
sa(dp4164
g2215
I0
sg2216
I0
saa(lp4165
(dp4166
g2215
F0.06212876956440087
sg2216
F-0.21516333965056944
sa(dp4167
g2215
I0
sg2216
I0
saa(lp4168
(dp4169
g2215
F0.03252503197119691
sg2216
F-0.11293161611632462
sa(dp4170
g2215
I0
sg2216
I0
saa(lp4171
(dp4172
g2215
F0.005297734587194551
sg2216
F-0.06709728137467005
sa(dp4173
g2215
I0
sg2216
I0
saa(lp4174
(dp4175
g2215
F-0.021236704355601523
sg2216
F-0.05801826396717349
sa(dp4176
g2215
I0
sg2216
I0
saa(lp4177
(dp4178
g2215
F-0.047804498173885886
sg2216
F-0.06661887848756466
sa(dp4179
g2215
I0
sg2216
I0
saa(lp4180
(dp4181
g2215
F-0.07484216154177349
sg2216
F-0.07491255032614635
sa(dp4182
g2215
I0
sg2216
I0
saa(lp4183
(dp4184
g2215
F-0.10253574250388622
sg2216
F-0.06969452502146828
sa(dp4185
g2215
I0
sg2216
I0
saa(lp4186
(dp4187
g2215
F-0.13080583633701062
sg2216
F-0.09217592741369898
sa(dp4188
g2215
I0
sg2216
I0
saa(lp4189
(dp4190
g2215
F-0.15954264916453537
sg2216
F-0.13549289081822186
sa(dp4191
g2215
I0
sg2216
I0
saa(lp4192
(dp4193
g2215
F-0.18872107984338768
sg2216
F-0.18225066833360878
sa(dp4194
g2215
I0
sg2216
I0
saa(lp4195
(dp4196
g2215
F-0.21795062248222732
sg2216
F-0.22043234618419058
sa(dp4197
g2215
I0
sg2216
I0
saa(lp4198
(dp4199
g2215
F-0.2458931461902353
sg2216
F-0.2439303378610648
sa(dp4200
g2215
I0
sg2216
I0
saa(lp4201
(dp4202
g2215
F-0.26981355797490836
sg2216
F-0.25274229585912233
sa(dp4203
g2215
I0
sg2216
I0
saa(lp4204
(dp4205
g2215
F-0.28520946862569113
sg2216
F-0.2524091371143198
sa(dp4206
g2215
I0
sg2216
I0
saa(lp4207
(dp4208
g2215
F-0.28520946862569113
sg2216
F-0.2524091371143198
sa(dp4209
g2215
I0
sg2216
I0
saa(lp4210
(dp4211
g2215
F-0.28520946862569113
sg2216
F-0.2524091371143198
sa(dp4212
g2215
I0
sg2216
I0
saa(lp4213
(dp4214
g2215
F-0.28520946862569113
sg2216
F-0.2524091371143198
sa(dp4215
g2215
I0
sg2216
I0
saa(lp4216
(dp4217
g2215
F-0.28520946862569113
sg2216
F-0.2524091371143198
sa(dp4218
g2215
I0
sg2216
I0
saa(lp4219
(dp4220
g2215
F-0.28520946862569113
sg2216
F-0.2524091371143198
sa(dp4221
g2215
I0
sg2216
I0
saa(lp4222
(dp4223
g2215
F-0.28520946862569113
sg2216
F-0.2524091371143198
sa(dp4224
g2215
I0
sg2216
I0
saa(lp4225
(dp4226
g2215
F-0.28520946862569113
sg2216
F-0.2524091371143198
sa(dp4227
g2215
I0
sg2216
I0
saa(lp4228
(dp4229
g2215
F-0.28520946862569113
sg2216
F-0.2524091371143198
sa(dp4230
g2215
F0.11977469626687316
sg2216
F0.03260987753793775
saa(lp4231
(dp4232
g2215
F-0.28520946862569113
sg2216
F-0.2524091371143198
sa(dp4233
g2215
F0.181913119527965
sg2216
F0.06528814793253461
saa(lp4234
(dp4235
g2215
F-0.28520946862569113
sg2216
F-0.2524091371143198
sa(dp4236
g2215
F0.20831979492881209
sg2216
F0.09707748679853433
saa(lp4237
(dp4238
g2215
F-0.28520946862569113
sg2216
F-0.2524091371143198
sa(dp4239
g2215
F0.2128146777510577
sg2216
F0.12654279160096196
saa(lp4240
(dp4241
g2215
F-0.28520946862569113
sg2216
F-0.2524091371143198
sa(dp4242
g2215
F0.20417370659639314
sg2216
F0.15212934812630896
saa(lp4243
(dp4244
g2215
F-0.28520946862569113
sg2216
F-0.2524091371143198
sa(dp4245
g2215
F0.18801334211761916
sg2216
F0.1723980501102862
saa(lp4246
(dp4247
g2215
F-0.28520946862569113
sg2216
F-0.2524091371143198
sa(dp4248
g2215
F0.16795543864900972
sg2216
F0.1861741918376372
saa(lp4249
(dp4250
g2215
F-0.28520946862569113
sg2216
F-0.2524091371143198
sa(dp4251
g2215
F0.14634477806721566
sg2216
F0.19263099057181277
saa(lp4252
(dp4253
g2215
F-0.28520946862569113
sg2216
F-0.2524091371143198
sa(dp4254
g2215
F0.12468983115998099
sg2216
F0.19132106002027469
saa(lp4255
(dp4256
g2215
F-0.28520946862569113
sg2216
F-0.2524091371143198
sa(dp4257
g2215
F0.10393374908392924
sg2216
F0.18216638012620676
saa(lp4258
(dp4259
g2215
F-0.28520946862569113
sg2216
F-0.2524091371143198
sa(dp4260
g2215
F0.08462260907162958
sg2216
F0.16541799450781464
saa(lp4261
(dp4262
g2215
F-0.28520946862569113
sg2216
F-0.2524091371143198
sa(dp4263
g2215
F0.06701259264803798
sg2216
F0.14159825632902007
saa(lp4264
(dp4265
g2215
F-0.28520946862569113
sg2216
F-0.2524091371143198
sa(dp4266
g2215
F0.05114161573085702
sg2216
F0.11143878244467029
saa(lp4267
(dp4268
g2215
F-0.28520946862569113
sg2216
F-0.2524091371143198
sa(dp4269
g2215
F0.036880678570089385
sg2216
F0.07582547014650283
saa(lp4270
(dp4271
g2215
F-0.28520946862569113
sg2216
F-0.2524091371143198
sa(dp4272
g2215
F0.023973849553206805
sg2216
F0.03575842469167363
saa(lp4273
(dp4274
g2215
F-0.28520946862569113
sg2216
F-0.2524091371143198
sa(dp4275
g2215
F0.012072038197799105
sg2216
F-0.007669476290326333
saa(lp4276
(dp4277
g2215
F-0.28520946862569113
sg2216
F-0.2524091371143198
sa(dp4278
g2215
F0.0007636435813047593
sg2216
F-0.05327547570953558
saa(lp4279
(dp4280
g2215
F-0.28520946862569113
sg2216
F-0.2524091371143198
sa(dp4281
g2215
F-0.010395877890380274
sg2216
F-0.09977456911434329
saa(lp4282
(dp4283
g2215
F-0.28520946862569113
sg2216
F-0.2524091371143198
sa(dp4284
g2215
F-0.021853998156566776
sg2216
F-0.14575793168274725
saa(lp4285
(dp4286
g2215
F-0.28520946862569113
sg2216
F-0.2524091371143198
sa(dp4287
g2215
F-0.03402951830604315
sg2216
F-0.18967099648983485
saa(lp4288
(dp4289
g2215
F-0.28520946862569113
sg2216
F-0.2524091371143198
sa(dp4290
g2215
F-0.04727881764225351
sg2216
F-0.22980254392186397
saa(lp4291
(dp4292
g2215
F-0.28520946862569113
sg2216
F-0.2524091371143198
sa(dp4293
g2215
F-0.06186061661888892
sg2216
F-0.26430013318055584
saa(lp4294
(dp4295
g2215
F-0.28520946862569113
sg2216
F-0.2524091371143198
sa(dp4296
g2215
F-0.07790146894086432
sg2216
F-0.29122933347702545
saa(lp4297
(dp4298
g2215
F-0.28520946862569113
sg2216
F-0.2524091371143198
sa(dp4299
g2215
F-0.09536558849506858
sg2216
F-0.3086878311117809
saa(lp4300
(dp4301
g2215
F-0.28520946862569113
sg2216
F-0.2524091371143198
sa(dp4302
g2215
F-0.11403382554101356
sg2216
F-0.31497266009854963
saa(lp4303
(dp4304
g2215
F-0.28520946862569113
sg2216
F-0.2524091371143198
sa(dp4305
g2215
F-0.13349709697375495
sg2216
F-0.30877672899982955
saa(lp4306
(dp4307
g2215
F-0.28520946862569113
sg2216
F-0.2524091371143198
sa(dp4308
g2215
F-0.15316771640620913
sg2216
F-0.2893684524296138
saa(lp4309
(dp4310
g2215
F-0.28520946862569113
sg2216
F-0.2524091371143198
sa(dp4311
g2215
F-0.17230861070318065
sg2216
F-0.2567085393558868
saa(lp4312
(dp4313
g2215
F-0.28520946862569113
sg2216
F-0.2524091371143198
sa(dp4314
g2215
F-0.19007989434861955
sg2216
F-0.21146521687687583
saa(lp4315
(dp4316
g2215
F-0.28520946862569113
sg2216
F-0.2524091371143198
sa(dp4317
g2215
F-0.20559933252739665
sg2216
F-0.15493312174887147
saa(lp4318
(dp4319
g2215
F-0.28520946862569113
sg2216
F-0.2524091371143198
sa(dp4320
g2215
F-0.21801104399128474
sg2216
F-0.0888955456700255
saa(lp4321
(dp4322
g2215
F-0.28520946862569113
sg2216
F-0.2524091371143198
sa(dp4323
g2215
F-0.22656167527624457
sg2216
F-0.01547767615248487
saa(lp4324
(dp4325
g2215
F-0.28520946862569113
sg2216
F-0.2524091371143198
sa(dp4326
g2215
F-0.23069083727416986
sg2216
F0.06297352512236075
saa(lp4327
(dp4328
g2215
F-0.28520946862569113
sg2216
F-0.2524091371143198
sa(dp4329
g2215
F-0.23015115090557114
sg2216
F0.1439688802912459
saa(lp4330
(dp4331
g2215
F-0.28520946862569113
sg2216
F-0.2524091371143198
sa(dp4332
g2215
F-0.2250247037041587
sg2216
F0.22492166792637996
saa(lp4333
(dp4334
g2215
F-0.28520946862569113
sg2216
F-0.2524091371143198
sa(dp4335
g2215
F-0.21563661722815478
sg2216
F0.30318063767137543
saa(lp4336
(dp4337
g2215
F-0.28520946862569113
sg2216
F-0.2524091371143198
sa(dp4338
g2215
F-0.20249979941930327
sg2216
F0.376085473161606
saa(lp4339
(dp4340
g2215
F-0.28520946862569113
sg2216
F-0.2524091371143198
sa(dp4341
g2215
F-0.18627294601331618
sg2216
F0.44108542387680094
saa(lp4342
(dp4343
g2215
F-0.28520946862569113
sg2216
F-0.2524091371143198
sa(dp4344
g2215
F-0.1677162044448747
sg2216
F0.49595589404449303
saa(lp4345
(dp4346
g2215
F-0.28520946862569113
sg2216
F-0.2524091371143198
sa(dp4347
g2215
F-0.14763237379611502
sg2216
F0.5391202055078583
saa(lp4348
(dp4349
g2215
F-0.28520946862569113
sg2216
F-0.2524091371143198
sa(dp4350
g2215
F-0.12678890518747793
sg2216
F0.5700298102611654
saa(lp4351
(dp4352
g2215
F-0.28520946862569113
sg2216
F-0.2524091371143198
sa(dp4353
g2215
F-0.10582740457548312
sg2216
F0.5894981868885566
saa(lp4354
(dp4355
g2215
F-0.28520946862569113
sg2216
F-0.2524091371143198
sa(dp4356
g2215
F-0.0851784064550207
sg2216
F0.5998888786750028
saa(lp4357
(dp4358
g2215
F-0.28520946862569113
sg2216
F-0.2524091371143198
sa(dp4359
g2215
F-0.06512760161811387
sg2216
F0.5999272239002872
saa(lp4360
(dp4361
g2215
F-0.28520946862569113
sg2216
F-0.2524091371143198
sa(dp4362
g2215
F-0.04615401033135225
sg2216
F0.5999220037526486
saa(lp4363
(dp4364
g2215
F-0.28520946862569113
sg2216
F-0.2524091371143198
sa(dp4365
g2215
F-0.028540218550252894
sg2216
F0.5998350906856957
saa(lp4366
(dp4367
g2215
F-0.28520946862569113
sg2216
F-0.2524091371143198
sa(dp4368
g2215
F-0.012521775672988124
sg2216
F0.5882477710882994
saa(lp4369
(dp4370
g2215
F-0.28520946862569113
sg2216
F-0.2524091371143198
sa(dp4371
g2215
F0.0016886335778453349
sg2216
F0.5565092808926146
saa(lp4372
(dp4373
g2215
F-0.28520946862569113
sg2216
F-0.2524091371143198
sa(dp4374
g2215
F0.014025419403469087
sg2216
F0.5093127523753936
saa(lp4375
(dp4376
g2215
F-0.28520946862569113
sg2216
F-0.2524091371143198
sa(dp4377
g2215
F0.02466252533703321
sg2216
F0.4514455350052177
saa(lp4378
(dp4379
g2215
F-0.28520946862569113
sg2216
F-0.2524091371143198
sa(dp4380
g2215
F0.033997319823955284
sg2216
F0.3871887378208052
saa(lp4381
(dp4382
g2215
F-0.28520946862569113
sg2216
F-0.2524091371143198
sa(dp4383
g2215
F0.04258332279966921
sg2216
F0.320106802262913
saa(lp4384
(dp4385
g2215
F-0.28520946862569113
sg2216
F-0.2524091371143198
sa(dp4386
g2215
F0.05105151963191627
sg2216
F0.2530533860678799
saa(lp4387
(dp4388
g2215
F-0.28520946862569113
sg2216
F-0.2524091371143198
sa(dp4389
g2215
F0.060038044502200696
sg2216
F0.18828009986179983
saa(lp4390
(dp4391
g2215
F-0.28520946862569113
sg2216
F-0.2524091371143198
sa(dp4392
g2215
F0.07012557228004945
sg2216
F0.12756473594347312
saa(lp4393
(dp4394
g2215
F-0.28520946862569113
sg2216
F-0.2524091371143198
sa(dp4395
g2215
F0.08179739843893173
sg2216
F0.07231439477336844
saa(lp4396
(dp4397
g2215
F-0.28520946862569113
sg2216
F-0.2524091371143198
sa(dp4398
g2215
F0.09540074254820144
sg2216
F0.02363157432265162
saa(lp4399
(dp4400
g2215
F-0.28520946862569113
sg2216
F-0.2524091371143198
sa(dp4401
g2215
F0.11111509549254069
sg2216
F-0.017663358729199875
saa(lp4402
(dp4403
g2215
F-0.28520946862569113
sg2216
F-0.2524091371143198
sa(dp4404
g2215
F0.1289209271322522
sg2216
F-0.05104991931308463
saa(lp4405
(dp4406
g2215
F-0.28520946862569113
sg2216
F-0.2524091371143198
sa(dp4407
g2215
F0.14856316172748169
sg2216
F-0.07635731064986581
saa(lp4408
(dp4409
g2215
F-0.28520946862569113
sg2216
F-0.2524091371143198
sa(dp4410
g2215
F0.1695012079673601
sg2216
F-0.09383415134107338
saa(lp4411
(dp4412
g2215
F-0.28520946862569113
sg2216
F-0.2524091371143198
sa(dp4413
g2215
F0.19083223224715096
sg2216
F-0.10421988612357244
saa(lp4414
(dp4415
g2215
F-0.28520946862569113
sg2216
F-0.2524091371143198
sa(dp4416
g2215
F0.21116552655466184
sg2216
F-0.10879527510852892
saa(lp4417
(dp4418
g2215
F-0.28520946862569113
sg2216
F-0.2524091371143198
sa(dp4419
g2215
F0.2284115900584456
sg2216
F-0.10939065828483711
saaa.