(lp0
(lp1
I0
aF0.1
aF0.2
aF0.30000000000000004
aF0.4
aF0.5
aF0.6
aF0.7
aF0.7999999999999999
aF0.8999999999999999
aF0.9999999999999999
aF1.0999999999999999
aF1.2
aF1.3
aF1.4000000000000001
aF1.5000000000000002
aF1.6000000000000003
aF1.7000000000000004
aF1.8000000000000005
aF1.9000000000000006
aF2.0000000000000004
aF2.1000000000000005
aF2.2000000000000006
aF2.3000000000000007
aF2.400000000000001
aF2.500000000000001
aF2.600000000000001
aF2.700000000000001
aF2.800000000000001
aF2.9000000000000012
aF3.0000000000000013
aF3.1000000000000014
aF3.2000000000000015
aF3.3000000000000016
aF3.4000000000000017
aF3.5000000000000018
aF3.600000000000002
aF3.700000000000002
aF3.800000000000002
aF3.900000000000002
aF4.000000000000002
aF4.100000000000001
aF4.200000000000001
aF4.300000000000001
aF4.4
aF4.5
aF4.6
aF4.699999999999999
aF4.799999999999999
aF4.899999999999999
aF4.999999999999998
aF5.099999999999998
aF5.1999999999999975
aF5.299999999999997
aF5.399999999999997
aF5.4999999999999964
aF5.599999999999996
aF5.699999999999996
aF5.799999999999995
aF5.899999999999995
aF5.999999999999995
aF6.099999999999994
aF6.199999999999994
aF6.299999999999994
aF6.399999999999993
aF6.499999999999993
aF6.5999999999999925
aF6.699999999999992
aF6.799999999999992
aF6.8999999999999915
aF6.999999999999991
aF7.099999999999991
aF7.19999999999999
aF7.29999999999999
aF7.39999999999999
aF7.499999999999989
aF7.599999999999989
aF7.699999999999989
aF7.799999999999988
aF7.899999999999988
aF7.999999999999988
aF8.099999999999987
aF8.199999999999987
aF8.299999999999986
aF8.399999999999986
aF8.499999999999986
aF8.599999999999985
aF8.699999999999985
aF8.799999999999985
aF8.899999999999984
aF8.999999999999984
aF9.099999999999984
aF9.199999999999983
aF9.299999999999983
aF9.399999999999983
aF9.499999999999982
aF9.599999999999982
aF9.699999999999982
aF9.799999999999981
aF9.89999999999998
aF9.99999999999998
aF10.09999999999998
aF10.19999999999998
aF10.29999999999998
aF10.399999999999979
aF10.499999999999979
aF10.599999999999978
aF10.699999999999978
aF10.799999999999978
aF10.899999999999977
aF10.999999999999977
aF11.099999999999977
aF11.199999999999976
aF11.299999999999976
aF11.399999999999975
aF11.499999999999975
aF11.599999999999975
aF11.699999999999974
aF11.799999999999974
aF11.899999999999974
aF11.999999999999973
aF12.099999999999973
aF12.199999999999973
aF12.299999999999972
aF12.399999999999972
aF12.499999999999972
aF12.599999999999971
aF12.69999999999997
aF12.79999999999997
aF12.89999999999997
aF12.99999999999997
aF13.09999999999997
aF13.199999999999969
aF13.299999999999969
aF13.399999999999968
aF13.499999999999968
aF13.599999999999968
aF13.699999999999967
aF13.799999999999967
aF13.899999999999967
aF13.999999999999966
aF14.099999999999966
aF14.199999999999966
aF14.299999999999965
aF14.399999999999965
aF14.499999999999964
aF14.599999999999964
aF14.699999999999964
aF14.799999999999963
aF14.899999999999963
aF14.999999999999963
aF15.099999999999962
aF15.199999999999962
aF15.299999999999962
aF15.399999999999961
aF15.499999999999961
aF15.59999999999996
aF15.69999999999996
aF15.79999999999996
aF15.89999999999996
aF15.99999999999996
aF16.09999999999996
aF16.19999999999996
aF16.29999999999996
aF16.399999999999963
aF16.499999999999964
aF16.599999999999966
aF16.699999999999967
aF16.79999999999997
aF16.89999999999997
aF16.99999999999997
aF17.099999999999973
aF17.199999999999974
aF17.299999999999976
aF17.399999999999977
aF17.49999999999998
aF17.59999999999998
aF17.69999999999998
aF17.799999999999983
aF17.899999999999984
aF17.999999999999986
aF18.099999999999987
aF18.19999999999999
aF18.29999999999999
aF18.39999999999999
aF18.499999999999993
aF18.599999999999994
aF18.699999999999996
aF18.799999999999997
aF18.9
aF19.0
aF19.1
aF19.200000000000003
aF19.300000000000004
aF19.400000000000006
aF19.500000000000007
aF19.60000000000001
aF19.70000000000001
aF19.80000000000001
aF19.900000000000013
aF20.000000000000014
aF20.100000000000016
aF20.200000000000017
aF20.30000000000002
aF20.40000000000002
aF20.50000000000002
aF20.600000000000023
aF20.700000000000024
aF20.800000000000026
aF20.900000000000027
aF21.00000000000003
aF21.10000000000003
aF21.20000000000003
aF21.300000000000033
aF21.400000000000034
aF21.500000000000036
aF21.600000000000037
aF21.70000000000004
aF21.80000000000004
aF21.90000000000004
aF22.000000000000043
aF22.100000000000044
aF22.200000000000045
aF22.300000000000047
aF22.40000000000005
aF22.50000000000005
aF22.60000000000005
aF22.700000000000053
aF22.800000000000054
aF22.900000000000055
aF23.000000000000057
aF23.10000000000006
aF23.20000000000006
aF23.30000000000006
aF23.400000000000063
aF23.500000000000064
aF23.600000000000065
aF23.700000000000067
aF23.800000000000068
aF23.90000000000007
aF24.00000000000007
aF24.100000000000072
aF24.200000000000074
aF24.300000000000075
aF24.400000000000077
aF24.500000000000078
aF24.60000000000008
aF24.70000000000008
aF24.800000000000082
aF24.900000000000084
aF25.000000000000085
aF25.100000000000087
aF25.200000000000088
aF25.30000000000009
aF25.40000000000009
aF25.500000000000092
aF25.600000000000094
aF25.700000000000095
aF25.800000000000097
aF25.900000000000098
aF26.0000000000001
aF26.1000000000001
aF26.200000000000102
aF26.300000000000104
aF26.400000000000105
aF26.500000000000107
aF26.600000000000108
aF26.70000000000011
aF26.80000000000011
aF26.900000000000112
aF27.000000000000114
aF27.100000000000115
aF27.200000000000117
aF27.300000000000118
aF27.40000000000012
aF27.50000000000012
aF27.600000000000122
aF27.700000000000124
aF27.800000000000125
aF27.900000000000126
aF28.000000000000128
aF28.10000000000013
aF28.20000000000013
aF28.300000000000132
aF28.400000000000134
aF28.500000000000135
aF28.600000000000136
aF28.700000000000138
aF28.80000000000014
aF28.90000000000014
aF29.000000000000142
aF29.100000000000144
aF29.200000000000145
aF29.300000000000146
aF29.400000000000148
aF29.50000000000015
aF29.60000000000015
aF29.700000000000152
aF29.800000000000153
aF29.900000000000155
aF30.000000000000156
aF30.100000000000158
aF30.20000000000016
aF30.30000000000016
aF30.400000000000162
aF30.500000000000163
aF30.600000000000165
aF30.700000000000166
aF30.800000000000168
aF30.90000000000017
aF31.00000000000017
aF31.100000000000172
aF31.200000000000173
aF31.300000000000175
aF31.400000000000176
aF31.500000000000178
aF31.60000000000018
aF31.70000000000018
aF31.800000000000182
aF31.900000000000183
aF32.000000000000185
aF32.100000000000186
aF32.20000000000019
aF32.30000000000019
aF32.40000000000019
aF32.50000000000019
aF32.60000000000019
aF32.700000000000195
aF32.800000000000196
aF32.9000000000002
aF33.0000000000002
aF33.1000000000002
aF33.2000000000002
aF33.3000000000002
aF33.400000000000205
aF33.500000000000206
aF33.60000000000021
aF33.70000000000021
aF33.80000000000021
aF33.90000000000021
aF34.00000000000021
aF34.100000000000215
aF34.200000000000216
aF34.30000000000022
aF34.40000000000022
aF34.50000000000022
aF34.60000000000022
aF34.70000000000022
aF34.800000000000225
aF34.900000000000226
aF35.00000000000023
aF35.10000000000023
aF35.20000000000023
aF35.30000000000023
aF35.40000000000023
aF35.500000000000234
aF35.600000000000236
aF35.70000000000024
aF35.80000000000024
aF35.90000000000024
aF36.00000000000024
aF36.10000000000024
aF36.200000000000244
aF36.300000000000246
aF36.40000000000025
aF36.50000000000025
aF36.60000000000025
aF36.70000000000025
aF36.80000000000025
aF36.900000000000254
aF37.000000000000256
aF37.10000000000026
aF37.20000000000026
aF37.30000000000026
aF37.40000000000026
aF37.50000000000026
aF37.600000000000264
aF37.700000000000266
aF37.80000000000027
aF37.90000000000027
aF38.00000000000027
aF38.10000000000027
aF38.20000000000027
aF38.300000000000274
aF38.400000000000276
aF38.50000000000028
aF38.60000000000028
aF38.70000000000028
aF38.80000000000028
aF38.90000000000028
aF39.000000000000284
aF39.100000000000286
aF39.20000000000029
aF39.30000000000029
aF39.40000000000029
aF39.50000000000029
aF39.60000000000029
aF39.700000000000294
aF39.800000000000296
aF39.9000000000003
aF40.0000000000003
aF40.1000000000003
aF40.2000000000003
aF40.3000000000003
aF40.400000000000304
aF40.500000000000306
aF40.60000000000031
aF40.70000000000031
aF40.80000000000031
aF40.90000000000031
aF41.00000000000031
aF41.100000000000314
aF41.200000000000315
aF41.30000000000032
aF41.40000000000032
aF41.50000000000032
aF41.60000000000032
aF41.70000000000032
aF41.800000000000324
aF41.900000000000325
aF42.00000000000033
aF42.10000000000033
aF42.20000000000033
aF42.30000000000033
aF42.40000000000033
aF42.500000000000334
aF42.600000000000335
aF42.70000000000034
aF42.80000000000034
aF42.90000000000034
aF43.00000000000034
aF43.10000000000034
aF43.200000000000344
aF43.300000000000345
aF43.40000000000035
aF43.50000000000035
aF43.60000000000035
aF43.70000000000035
aF43.80000000000035
aF43.900000000000354
aF44.000000000000355
aF44.10000000000036
aF44.20000000000036
aF44.30000000000036
aF44.40000000000036
aF44.50000000000036
aF44.600000000000364
aF44.700000000000365
aF44.80000000000037
aF44.90000000000037
aF45.00000000000037
aF45.10000000000037
aF45.20000000000037
aF45.300000000000374
aF45.400000000000375
aF45.50000000000038
aF45.60000000000038
aF45.70000000000038
aF45.80000000000038
aF45.90000000000038
aF46.000000000000384
aF46.100000000000385
aF46.20000000000039
aF46.30000000000039
aF46.40000000000039
aF46.50000000000039
aF46.60000000000039
aF46.700000000000394
aF46.800000000000395
aF46.9000000000004
aF47.0000000000004
aF47.1000000000004
aa(lp2
(lp3
(dp4
S'y'
p5
F-1.5
sS'x'
p6
F-33.0
sS'psi'
p7
I0
sS'v'
p8
F0.0
sa(dp9
g5
F1.5
sg6
F-33.0
sg7
I0
sg8
F0.0
saa(lp10
(dp11
g5
F-1.5
sg6
F-33.0
sg7
I0
sg8
F0.0
sa(dp12
g5
F1.5
sg6
F-33.0
sg7
I0
sg8
F0.0
saa(lp13
(dp14
g5
F-1.5
sg6
F-33.0
sg7
I0
sg8
F0.0
sa(dp15
g5
F1.5
sg6
F-33.0
sg7
I0
sg8
F0.0
saa(lp16
(dp17
g5
F-1.5
sg6
F-33.0
sg7
I0
sg8
F0.0
sa(dp18
g5
F1.5
sg6
F-33.0
sg7
I0
sg8
F0.0
saa(lp19
(dp20
g5
F-1.5
sg6
F-33.0
sg7
I0
sg8
F0.0
sa(dp21
g5
F1.5
sg6
F-32.6
sg7
I0
sg8
F4.0
saa(lp22
(dp23
g5
F-1.5
sg6
F-33.0
sg7
I0
sg8
F0.0
sa(dp24
g5
F1.5
sg6
F-32.2
sg7
I0
sg8
F4.0
saa(lp25
(dp26
g5
F-1.5
sg6
F-33.0
sg7
I0
sg8
F0.0
sa(dp27
g5
F1.5
sg6
F-31.800000000000004
sg7
I0
sg8
F4.0
saa(lp28
(dp29
g5
F-1.5
sg6
F-33.0
sg7
I0
sg8
F0.0
sa(dp30
g5
F1.5
sg6
F-31.400000000000006
sg7
I0
sg8
F4.0
saa(lp31
(dp32
g5
F-1.5
sg6
F-33.0
sg7
I0
sg8
F0.0
sa(dp33
g5
F1.5
sg6
F-31.000000000000007
sg7
I0
sg8
F4.0
saa(lp34
(dp35
g5
F-1.5
sg6
F-32.6
sg7
I0
sg8
F4.0
sa(dp36
g5
F1.5
sg6
F-30.60000000000001
sg7
I0
sg8
F4.0
saa(lp37
(dp38
g5
F-1.5
sg6
F-32.2
sg7
I0
sg8
F4.0
sa(dp39
g5
F1.5
sg6
F-30.20000000000001
sg7
I0
sg8
F4.0
saa(lp40
(dp41
g5
F-1.5
sg6
F-31.800000000000004
sg7
I0
sg8
F4.0
sa(dp42
g5
F1.5
sg6
F-29.80000000000001
sg7
I0
sg8
F4.0
saa(lp43
(dp44
g5
F-1.5
sg6
F-31.400000000000006
sg7
I0
sg8
F4.0
sa(dp45
g5
F1.5
sg6
F-29.400000000000013
sg7
I0
sg8
F4.0
saa(lp46
(dp47
g5
F-1.5
sg6
F-31.000000000000007
sg7
I0
sg8
F4.0
sa(dp48
g5
F1.5
sg6
F-29.000000000000014
sg7
I0
sg8
F4.0
saa(lp49
(dp50
g5
F-1.5
sg6
F-30.60000000000001
sg7
I0
sg8
F4.0
sa(dp51
g5
F1.5
sg6
F-28.600000000000016
sg7
I0
sg8
F4.0
saa(lp52
(dp53
g5
F-1.5
sg6
F-30.20000000000001
sg7
I0
sg8
F4.0
sa(dp54
g5
F1.5
sg6
F-28.200000000000017
sg7
I0
sg8
F4.0
saa(lp55
(dp56
g5
F-1.5
sg6
F-29.80000000000001
sg7
I0
sg8
F4.0
sa(dp57
g5
F1.5
sg6
F-27.80000000000002
sg7
I0
sg8
F4.0
saa(lp58
(dp59
g5
F-1.5
sg6
F-29.400000000000013
sg7
I0
sg8
F4.0
sa(dp60
g5
F1.5
sg6
F-27.40000000000002
sg7
I0
sg8
F4.0
saa(lp61
(dp62
g5
F-1.5
sg6
F-29.000000000000014
sg7
I0
sg8
F4.0
sa(dp63
g5
F1.5
sg6
F-27.00000000000002
sg7
I0
sg8
F4.0
saa(lp64
(dp65
g5
F-1.5
sg6
F-28.600000000000016
sg7
I0
sg8
F4.0
sa(dp66
g5
F1.5
sg6
F-26.600000000000023
sg7
I0
sg8
F4.0
saa(lp67
(dp68
g5
F-1.5
sg6
F-28.200000000000017
sg7
I0
sg8
F4.0
sa(dp69
g5
F1.5
sg6
F-26.200000000000024
sg7
I0
sg8
F4.0
saa(lp70
(dp71
g5
F-1.5
sg6
F-27.80000000000002
sg7
I0
sg8
F4.0
sa(dp72
g5
F1.5
sg6
F-25.800000000000026
sg7
I0
sg8
F4.0
saa(lp73
(dp74
g5
F-1.5
sg6
F-27.40000000000002
sg7
I0
sg8
F4.0
sa(dp75
g5
F1.5
sg6
F-25.400000000000027
sg7
I0
sg8
F4.0
saa(lp76
(dp77
g5
F-1.5
sg6
F-27.00000000000002
sg7
I0
sg8
F4.0
sa(dp78
g5
F1.5
sg6
F-25.00000000000003
sg7
I0
sg8
F4.0
saa(lp79
(dp80
g5
F-1.5
sg6
F-26.600000000000023
sg7
I0
sg8
F4.0
sa(dp81
g5
F1.5
sg6
F-24.60000000000003
sg7
I0
sg8
F4.0
saa(lp82
(dp83
g5
F-1.5
sg6
F-26.200000000000024
sg7
I0
sg8
F4.0
sa(dp84
g5
F1.5
sg6
F-24.20000000000003
sg7
I0
sg8
F4.0
saa(lp85
(dp86
g5
F-1.5
sg6
F-25.800000000000026
sg7
I0
sg8
F4.0
sa(dp87
g5
F1.5
sg6
F-23.800000000000033
sg7
I0
sg8
F4.0
saa(lp88
(dp89
g5
F-1.5
sg6
F-25.400000000000027
sg7
I0
sg8
F4.0
sa(dp90
g5
F1.5
sg6
F-23.400000000000034
sg7
I0
sg8
F4.0
saa(lp91
(dp92
g5
F-1.5
sg6
F-25.00000000000003
sg7
I0
sg8
F4.0
sa(dp93
g5
F1.5
sg6
F-23.000000000000036
sg7
I0
sg8
F4.0
saa(lp94
(dp95
g5
F-1.5
sg6
F-24.60000000000003
sg7
I0
sg8
F4.0
sa(dp96
g5
F1.5
sg6
F-22.600000000000037
sg7
I0
sg8
F4.0
saa(lp97
(dp98
g5
F-1.5
sg6
F-24.20000000000003
sg7
I0
sg8
F4.0
sa(dp99
g5
F1.5
sg6
F-22.20000000000004
sg7
I0
sg8
F4.0
saa(lp100
(dp101
g5
F-1.5
sg6
F-23.800000000000033
sg7
I0
sg8
F4.0
sa(dp102
g5
F1.5
sg6
F-21.80000000000004
sg7
I0
sg8
F4.0
saa(lp103
(dp104
g5
F-1.5
sg6
F-23.400000000000034
sg7
I0
sg8
F4.0
sa(dp105
g5
F1.5
sg6
F-21.40000000000004
sg7
I0
sg8
F4.0
saa(lp106
(dp107
g5
F-1.5
sg6
F-23.000000000000036
sg7
I0
sg8
F4.0
sa(dp108
g5
F1.5
sg6
F-21.000000000000043
sg7
I0
sg8
F4.0
saa(lp109
(dp110
g5
F-1.5
sg6
F-22.600000000000037
sg7
I0
sg8
F4.0
sa(dp111
g5
F1.5
sg6
F-20.600000000000044
sg7
I0
sg8
F4.0
saa(lp112
(dp113
g5
F-1.5
sg6
F-22.20000000000004
sg7
I0
sg8
F4.0
sa(dp114
g5
F1.5
sg6
F-20.200000000000045
sg7
I0
sg8
F4.0
saa(lp115
(dp116
g5
F-1.5
sg6
F-21.80000000000004
sg7
I0
sg8
F4.0
sa(dp117
g5
F1.5
sg6
F-19.800000000000047
sg7
I0
sg8
F4.0
saa(lp118
(dp119
g5
F-1.5
sg6
F-21.40000000000004
sg7
I0
sg8
F4.0
sa(dp120
g5
F1.5
sg6
F-19.40000000000005
sg7
I0
sg8
F4.0
saa(lp121
(dp122
g5
F-1.5
sg6
F-21.000000000000043
sg7
I0
sg8
F4.0
sa(dp123
g5
F1.5
sg6
F-19.00000000000005
sg7
I0
sg8
F4.0
saa(lp124
(dp125
g5
F-1.5
sg6
F-20.600000000000044
sg7
I0
sg8
F4.0
sa(dp126
g5
F1.5
sg6
F-18.60000000000005
sg7
I0
sg8
F4.0
saa(lp127
(dp128
g5
F-1.5
sg6
F-20.200000000000045
sg7
I0
sg8
F4.0
sa(dp129
g5
F1.5
sg6
F-18.200000000000053
sg7
I0
sg8
F4.0
saa(lp130
(dp131
g5
F-1.5
sg6
F-19.800000000000047
sg7
I0
sg8
F4.0
sa(dp132
g5
F1.5
sg6
F-17.800000000000054
sg7
I0
sg8
F4.0
saa(lp133
(dp134
g5
F-1.5
sg6
F-19.40000000000005
sg7
I0
sg8
F4.0
sa(dp135
g5
F1.5
sg6
F-17.400000000000055
sg7
I0
sg8
F4.0
saa(lp136
(dp137
g5
F-1.5
sg6
F-19.00000000000005
sg7
I0
sg8
F4.0
sa(dp138
g5
F1.5
sg6
F-17.000000000000057
sg7
I0
sg8
F4.0
saa(lp139
(dp140
g5
F-1.5
sg6
F-18.60000000000005
sg7
I0
sg8
F4.0
sa(dp141
g5
F1.5
sg6
F-16.60000000000006
sg7
I0
sg8
F4.0
saa(lp142
(dp143
g5
F-1.5
sg6
F-18.200000000000053
sg7
I0
sg8
F4.0
sa(dp144
g5
F1.5
sg6
F-16.20000000000006
sg7
I0
sg8
F4.0
saa(lp145
(dp146
g5
F-1.5
sg6
F-17.800000000000054
sg7
I0
sg8
F4.0
sa(dp147
g5
F1.5
sg6
F-15.80000000000006
sg7
I0
sg8
F4.0
saa(lp148
(dp149
g5
F-1.5
sg6
F-17.400000000000055
sg7
I0
sg8
F4.0
sa(dp150
g5
F1.5
sg6
F-15.400000000000059
sg7
I0
sg8
F4.0
saa(lp151
(dp152
g5
F-1.5
sg6
F-17.000000000000057
sg7
I0
sg8
F4.0
sa(dp153
g5
F1.5
sg6
F-15.000000000000059
sg7
I0
sg8
F4.0
saa(lp154
(dp155
g5
F-1.5
sg6
F-16.60000000000006
sg7
I0
sg8
F4.0
sa(dp156
g5
F1.5
sg6
F-14.600000000000058
sg7
I0
sg8
F4.0
saa(lp157
(dp158
g5
F-1.5
sg6
F-16.20000000000006
sg7
I0
sg8
F4.0
sa(dp159
g5
F1.5
sg6
F-14.200000000000058
sg7
I0
sg8
F4.0
saa(lp160
(dp161
g5
F-1.5
sg6
F-15.80000000000006
sg7
I0
sg8
F4.0
sa(dp162
g5
F1.5
sg6
F-13.800000000000058
sg7
I0
sg8
F4.0
saa(lp163
(dp164
g5
F-1.5
sg6
F-15.400000000000059
sg7
I0
sg8
F4.0
sa(dp165
g5
F1.5
sg6
F-13.400000000000057
sg7
I0
sg8
F4.0
saa(lp166
(dp167
g5
F-1.5
sg6
F-15.000000000000059
sg7
I0
sg8
F4.0
sa(dp168
g5
F1.5
sg6
F-13.000000000000057
sg7
I0
sg8
F4.0
saa(lp169
(dp170
g5
F-1.5
sg6
F-14.600000000000058
sg7
I0
sg8
F4.0
sa(dp171
g5
F1.5
sg6
F-12.600000000000056
sg7
I0
sg8
F4.0
saa(lp172
(dp173
g5
F-1.5
sg6
F-14.200000000000058
sg7
I0
sg8
F4.0
sa(dp174
g5
F1.5
sg6
F-12.200000000000056
sg7
I0
sg8
F4.0
saa(lp175
(dp176
g5
F-1.5
sg6
F-13.800000000000058
sg7
I0
sg8
F4.0
sa(dp177
g5
F1.5
sg6
F-11.800000000000056
sg7
I0
sg8
F4.0
saa(lp178
(dp179
g5
F-1.5
sg6
F-13.400000000000057
sg7
I0
sg8
F4.0
sa(dp180
g5
F1.5
sg6
F-11.400000000000055
sg7
I0
sg8
F4.0
saa(lp181
(dp182
g5
F-1.5
sg6
F-13.000000000000057
sg7
I0
sg8
F4.0
sa(dp183
g5
F1.5
sg6
F-11.000000000000055
sg7
I0
sg8
F4.0
saa(lp184
(dp185
g5
F-1.5
sg6
F-12.600000000000056
sg7
I0
sg8
F4.0
sa(dp186
g5
F1.5
sg6
F-10.600000000000055
sg7
I0
sg8
F4.0
saa(lp187
(dp188
g5
F-1.5
sg6
F-12.200000000000056
sg7
I0
sg8
F4.0
sa(dp189
g5
F1.5
sg6
F-10.200000000000054
sg7
I0
sg8
F4.0
saa(lp190
(dp191
g5
F-1.5
sg6
F-11.800000000000056
sg7
I0
sg8
F4.0
sa(dp192
g5
F1.5
sg6
F-9.800000000000054
sg7
I0
sg8
F4.0
saa(lp193
(dp194
g5
F-1.5
sg6
F-11.400000000000055
sg7
I0
sg8
F4.0
sa(dp195
g5
F1.5
sg6
F-9.400000000000054
sg7
I0
sg8
F4.0
saa(lp196
(dp197
g5
F-1.5
sg6
F-11.000000000000055
sg7
I0
sg8
F4.0
sa(dp198
g5
F1.5
sg6
F-9.000000000000053
sg7
I0
sg8
F4.0
saa(lp199
(dp200
g5
F-1.5
sg6
F-10.600000000000055
sg7
I0
sg8
F4.0
sa(dp201
g5
F1.5
sg6
F-8.600000000000053
sg7
I0
sg8
F4.0
saa(lp202
(dp203
g5
F-1.5
sg6
F-10.200000000000054
sg7
I0
sg8
F4.0
sa(dp204
g5
F1.5
sg6
F-8.200000000000053
sg7
I0
sg8
F4.0
saa(lp205
(dp206
g5
F-1.5
sg6
F-9.800000000000054
sg7
I0
sg8
F4.0
sa(dp207
g5
F1.5
sg6
F-7.800000000000052
sg7
I0
sg8
F4.0
saa(lp208
(dp209
g5
F-1.5
sg6
F-9.400000000000054
sg7
I0
sg8
F4.0
sa(dp210
g5
F1.5
sg6
F-7.400000000000052
sg7
I0
sg8
F4.0
saa(lp211
(dp212
g5
F-1.5
sg6
F-9.000000000000053
sg7
I0
sg8
F4.0
sa(dp213
g5
F1.5
sg6
F-7.0000000000000515
sg7
I0
sg8
F4.0
saa(lp214
(dp215
g5
F-1.5
sg6
F-8.600000000000053
sg7
I0
sg8
F4.0
sa(dp216
g5
F1.5
sg6
F-6.600000000000051
sg7
I0
sg8
F4.0
saa(lp217
(dp218
g5
F-1.5
sg6
F-8.200000000000053
sg7
I0
sg8
F4.0
sa(dp219
g5
F1.5
sg6
F-6.200000000000051
sg7
I0
sg8
F4.0
saa(lp220
(dp221
g5
F-1.5
sg6
F-7.800000000000052
sg7
I0
sg8
F4.0
sa(dp222
g5
F1.5
sg6
F-5.8000000000000504
sg7
I0
sg8
F4.0
saa(lp223
(dp224
g5
F-1.5
sg6
F-7.400000000000052
sg7
I0
sg8
F4.0
sa(dp225
g5
F1.5
sg6
F-5.40000000000005
sg7
I0
sg8
F4.0
saa(lp226
(dp227
g5
F-1.5
sg6
F-7.0000000000000515
sg7
I0
sg8
F4.0
sa(dp228
g5
F1.5
sg6
F-5.00000000000005
sg7
I0
sg8
F4.0
saa(lp229
(dp230
g5
F-1.5
sg6
F-6.600000000000051
sg7
I0
sg8
F4.0
sa(dp231
g5
F1.5
sg6
F-4.600000000000049
sg7
I0
sg8
F4.0
saa(lp232
(dp233
g5
F-1.5
sg6
F-6.200000000000051
sg7
I0
sg8
F4.0
sa(dp234
g5
F1.5
sg6
F-4.200000000000049
sg7
I0
sg8
F4.0
saa(lp235
(dp236
g5
F-1.5
sg6
F-5.8000000000000504
sg7
I0
sg8
F4.0
sa(dp237
g5
F1.5
sg6
F-3.800000000000049
sg7
I0
sg8
F4.0
saa(lp238
(dp239
g5
F-1.5
sg6
F-5.40000000000005
sg7
I0
sg8
F4.0
sa(dp240
g5
F1.5
sg6
F-3.400000000000049
sg7
I0
sg8
F4.0
saa(lp241
(dp242
g5
F-1.5
sg6
F-5.00000000000005
sg7
I0
sg8
F4.0
sa(dp243
g5
F1.5
sg6
F-3.0000000000000493
sg7
I0
sg8
F4.0
saa(lp244
(dp245
g5
F-1.5
sg6
F-4.600000000000049
sg7
I0
sg8
F4.0
sa(dp246
g5
F1.5
sg6
F-2.6000000000000494
sg7
I0
sg8
F4.0
saa(lp247
(dp248
g5
F-1.5
sg6
F-4.200000000000049
sg7
I0
sg8
F4.0
sa(dp249
g5
F1.5
sg6
F-2.2000000000000495
sg7
I0
sg8
F4.0
saa(lp250
(dp251
g5
F-1.5
sg6
F-3.800000000000049
sg7
I0
sg8
F4.0
sa(dp252
g5
F1.5
sg6
F-1.8000000000000496
sg7
I0
sg8
F4.0
saa(lp253
(dp254
g5
F-1.5
sg6
F-3.400000000000049
sg7
I0
sg8
F4.0
sa(dp255
g5
F1.5
sg6
F-1.4000000000000496
sg7
I0
sg8
F4.0
saa(lp256
(dp257
g5
F-1.5
sg6
F-3.0000000000000493
sg7
I0
sg8
F4.0
sa(dp258
g5
F1.5
sg6
F-1.0000000000000497
sg7
I0
sg8
F4.0
saa(lp259
(dp260
g5
F-1.5
sg6
F-2.6000000000000494
sg7
I0
sg8
F4.0
sa(dp261
g5
F1.5
sg6
F-0.6000000000000497
sg7
I0
sg8
F4.0
saa(lp262
(dp263
g5
F-1.5
sg6
F-2.2000000000000495
sg7
I0
sg8
F4.0
sa(dp264
g5
F1.5
sg6
F-0.2000000000000497
sg7
I0
sg8
F4.0
saa(lp265
(dp266
g5
F-1.5
sg6
F-1.8000000000000496
sg7
I0
sg8
F4.0
sa(dp267
g5
F1.5
sg6
F0.19999999999995033
sg7
I0
sg8
F4.0
saa(lp268
(dp269
g5
F-1.5
sg6
F-1.4000000000000496
sg7
I0
sg8
F4.0
sa(dp270
g5
F1.5
sg6
F0.5999999999999504
sg7
I0
sg8
F4.0
saa(lp271
(dp272
g5
F-1.5
sg6
F-1.0000000000000497
sg7
I0
sg8
F4.0
sa(dp273
g5
F1.5
sg6
F0.9999999999999504
sg7
I0
sg8
F4.0
saa(lp274
(dp275
g5
F-1.5
sg6
F-0.6000000000000497
sg7
I0
sg8
F4.0
sa(dp276
g5
F1.5
sg6
F1.3999999999999504
sg7
I0
sg8
F4.0
saa(lp277
(dp278
g5
F-1.5
sg6
F-0.2000000000000497
sg7
I0
sg8
F4.0
sa(dp279
g5
F1.5
sg6
F1.7999999999999505
sg7
I0
sg8
F4.0
saa(lp280
(dp281
g5
F-1.5
sg6
F0.19999999999995033
sg7
I0
sg8
F4.0
sa(dp282
g5
F1.5
sg6
F2.1999999999999504
sg7
I0
sg8
F4.0
saa(lp283
(dp284
g5
F-1.5
sg6
F0.5999999999999504
sg7
I0
sg8
F4.0
sa(dp285
g5
F1.5
sg6
F2.5999999999999504
sg7
I0
sg8
F4.0
saa(lp286
(dp287
g5
F-1.5
sg6
F0.9999999999999504
sg7
I0
sg8
F4.0
sa(dp288
g5
F1.5
sg6
F2.9999999999999503
sg7
I0
sg8
F4.0
saa(lp289
(dp290
g5
F-1.5
sg6
F1.3999999999999504
sg7
I0
sg8
F4.0
sa(dp291
g5
F1.5
sg6
F3.39999999999995
sg7
I0
sg8
F4.0
saa(lp292
(dp293
g5
F-1.5
sg6
F1.7999999999999505
sg7
I0
sg8
F4.0
sa(dp294
g5
F1.5
sg6
F3.79999999999995
sg7
I0
sg8
F4.0
saa(lp295
(dp296
g5
F-1.5
sg6
F2.1999999999999504
sg7
I0
sg8
F4.0
sa(dp297
g5
F1.5
sg6
F4.19999999999995
sg7
I0
sg8
F4.0
saa(lp298
(dp299
g5
F-1.5
sg6
F2.5999999999999504
sg7
I0
sg8
F4.0
sa(dp300
g5
F1.5
sg6
F4.599999999999951
sg7
I0
sg8
F4.0
saa(lp301
(dp302
g5
F-1.5
sg6
F2.9999999999999503
sg7
I0
sg8
F4.0
sa(dp303
g5
F1.5
sg6
F4.999999999999951
sg7
I0
sg8
F4.0
saa(lp304
(dp305
g5
F-1.5
sg6
F3.39999999999995
sg7
I0
sg8
F4.0
sa(dp306
g5
F1.5
sg6
F5.3999999999999515
sg7
I0
sg8
F4.0
saa(lp307
(dp308
g5
F-1.5
sg6
F3.79999999999995
sg7
I0
sg8
F4.0
sa(dp309
g5
F1.5
sg6
F5.799999999999952
sg7
I0
sg8
F4.0
saa(lp310
(dp311
g5
F-1.5
sg6
F4.19999999999995
sg7
I0
sg8
F4.0
sa(dp312
g5
F1.5
sg6
F6.199999999999952
sg7
I0
sg8
F4.0
saa(lp313
(dp314
g5
F-1.5
sg6
F4.599999999999951
sg7
I0
sg8
F4.0
sa(dp315
g5
F1.5
sg6
F6.599999999999953
sg7
I0
sg8
F4.0
saa(lp316
(dp317
g5
F-1.5
sg6
F4.999999999999951
sg7
I0
sg8
F4.0
sa(dp318
g5
F1.5
sg6
F6.999999999999953
sg7
I0
sg8
F4.0
saa(lp319
(dp320
g5
F-1.5
sg6
F5.3999999999999515
sg7
I0
sg8
F4.0
sa(dp321
g5
F1.5
sg6
F7.399999999999953
sg7
I0
sg8
F4.0
saa(lp322
(dp323
g5
F-1.5
sg6
F5.799999999999952
sg7
I0
sg8
F4.0
sa(dp324
g5
F1.5
sg6
F7.799999999999954
sg7
I0
sg8
F4.0
saa(lp325
(dp326
g5
F-1.5
sg6
F6.199999999999952
sg7
I0
sg8
F4.0
sa(dp327
g5
F1.5
sg6
F8.199999999999953
sg7
I0
sg8
F4.0
saa(lp328
(dp329
g5
F-1.5
sg6
F6.599999999999953
sg7
I0
sg8
F4.0
sa(dp330
g5
F1.5
sg6
F8.599999999999953
sg7
I0
sg8
F4.0
saa(lp331
(dp332
g5
F-1.5
sg6
F6.999999999999953
sg7
I0
sg8
F4.0
sa(dp333
g5
F1.5
sg6
F8.999999999999954
sg7
I0
sg8
F4.0
saa(lp334
(dp335
g5
F-1.5
sg6
F7.399999999999953
sg7
I0
sg8
F4.0
sa(dp336
g5
F1.5
sg6
F9.399999999999954
sg7
I0
sg8
F4.0
saa(lp337
(dp338
g5
F-1.5
sg6
F7.799999999999954
sg7
I0
sg8
F4.0
sa(dp339
g5
F1.5
sg6
F9.799999999999955
sg7
I0
sg8
F4.0
saa(lp340
(dp341
g5
F-1.5
sg6
F8.199999999999953
sg7
I0
sg8
F4.0
sa(dp342
g5
F1.5
sg6
F10.199999999999955
sg7
I0
sg8
F4.0
saa(lp343
(dp344
g5
F-1.5
sg6
F8.599999999999953
sg7
I0
sg8
F4.0
sa(dp345
g5
F1.5
sg6
F10.599999999999955
sg7
I0
sg8
F4.0
saa(lp346
(dp347
g5
F-1.5
sg6
F8.999999999999954
sg7
I0
sg8
F4.0
sa(dp348
g5
F1.5
sg6
F10.999999999999956
sg7
I0
sg8
F4.0
saa(lp349
(dp350
g5
F-1.5
sg6
F9.399999999999954
sg7
I0
sg8
F4.0
sa(dp351
g5
F1.5
sg6
F11.399999999999956
sg7
I0
sg8
F4.0
saa(lp352
(dp353
g5
F-1.5
sg6
F9.799999999999955
sg7
I0
sg8
F4.0
sa(dp354
g5
F1.5
sg6
F11.799999999999956
sg7
I0
sg8
F4.0
saa(lp355
(dp356
g5
F-1.5
sg6
F10.199999999999955
sg7
I0
sg8
F4.0
sa(dp357
g5
F1.5
sg6
F12.199999999999957
sg7
I0
sg8
F4.0
saa(lp358
(dp359
g5
F-1.5
sg6
F10.599999999999955
sg7
I0
sg8
F4.0
sa(dp360
g5
F1.5
sg6
F12.599999999999957
sg7
I0
sg8
F4.0
saa(lp361
(dp362
g5
F-1.5
sg6
F10.999999999999956
sg7
I0
sg8
F4.0
sa(dp363
g5
F1.5
sg6
F12.999999999999957
sg7
I0
sg8
F4.0
saa(lp364
(dp365
g5
F-1.5
sg6
F11.399999999999956
sg7
I0
sg8
F4.0
sa(dp366
g5
F1.5
sg6
F13.399999999999958
sg7
I0
sg8
F4.0
saa(lp367
(dp368
g5
F-1.5
sg6
F11.799999999999956
sg7
I0
sg8
F4.0
sa(dp369
g5
F1.5
sg6
F13.799999999999958
sg7
I0
sg8
F4.0
saa(lp370
(dp371
g5
F-1.5
sg6
F12.199999999999957
sg7
I0
sg8
F4.0
sa(dp372
g5
F1.5
sg6
F14.199999999999958
sg7
I0
sg8
F4.0
saa(lp373
(dp374
g5
F-1.5
sg6
F12.599999999999957
sg7
I0
sg8
F4.0
sa(dp375
g5
F1.5
sg6
F14.599999999999959
sg7
I0
sg8
F4.0
saa(lp376
(dp377
g5
F-1.5
sg6
F12.999999999999957
sg7
I0
sg8
F4.0
sa(dp378
g5
F1.5
sg6
F14.99999999999996
sg7
I0
sg8
F4.0
saa(lp379
(dp380
g5
F-1.5
sg6
F13.399999999999958
sg7
I0
sg8
F4.0
sa(dp381
g5
F1.5
sg6
F15.39999999999996
sg7
I0
sg8
F4.0
saa(lp382
(dp383
g5
F-1.5
sg6
F13.799999999999958
sg7
I0
sg8
F4.0
sa(dp384
g5
F1.5
sg6
F15.79999999999996
sg7
I0
sg8
F4.0
saa(lp385
(dp386
g5
F-1.5
sg6
F14.199999999999958
sg7
I0
sg8
F4.0
sa(dp387
g5
F1.5
sg6
F16.19999999999996
sg7
I0
sg8
F4.0
saa(lp388
(dp389
g5
F-1.5
sg6
F14.599999999999959
sg7
I0
sg8
F4.0
sa(dp390
g5
F1.5
sg6
F16.59999999999996
sg7
I0
sg8
F4.0
saa(lp391
(dp392
g5
F-1.5
sg6
F14.99999999999996
sg7
I0
sg8
F4.0
sa(dp393
g5
F1.5
sg6
F16.999999999999957
sg7
I0
sg8
F4.0
saa(lp394
(dp395
g5
F-1.5
sg6
F15.39999999999996
sg7
I0
sg8
F4.0
sa(dp396
g5
F1.5
sg6
F17.399999999999956
sg7
I0
sg8
F4.0
saa(lp397
(dp398
g5
F-1.5
sg6
F15.79999999999996
sg7
I0
sg8
F4.0
sa(dp399
g5
F1.5
sg6
F17.799999999999955
sg7
I0
sg8
F4.0
saa(lp400
(dp401
g5
F-1.5
sg6
F16.19999999999996
sg7
I0
sg8
F4.0
sa(dp402
g5
F1.5
sg6
F18.199999999999953
sg7
I0
sg8
F4.0
saa(lp403
(dp404
g5
F-1.5
sg6
F16.59999999999996
sg7
I0
sg8
F4.0
sa(dp405
g5
F1.5
sg6
F18.59999999999995
sg7
I0
sg8
F4.0
saa(lp406
(dp407
g5
F-1.5
sg6
F16.999999999999957
sg7
I0
sg8
F4.0
sa(dp408
g5
F1.5
sg6
F18.99999999999995
sg7
I0
sg8
F4.0
saa(lp409
(dp410
g5
F-1.5
sg6
F17.399999999999956
sg7
I0
sg8
F4.0
sa(dp411
g5
F1.5
sg6
F19.39999999999995
sg7
I0
sg8
F4.0
saa(lp412
(dp413
g5
F-1.5
sg6
F17.799999999999955
sg7
I0
sg8
F4.0
sa(dp414
g5
F1.5
sg6
F19.799999999999947
sg7
I0
sg8
F4.0
saa(lp415
(dp416
g5
F-1.5
sg6
F18.199999999999953
sg7
I0
sg8
F4.0
sa(dp417
g5
F1.5
sg6
F20.199999999999946
sg7
I0
sg8
F4.0
saa(lp418
(dp419
g5
F-1.5
sg6
F18.59999999999995
sg7
I0
sg8
F4.0
sa(dp420
g5
F1.5
sg6
F20.599999999999945
sg7
I0
sg8
F4.0
saa(lp421
(dp422
g5
F-1.5
sg6
F18.99999999999995
sg7
I0
sg8
F4.0
sa(dp423
g5
F1.5
sg6
F20.999999999999943
sg7
I0
sg8
F4.0
saa(lp424
(dp425
g5
F-1.5
sg6
F19.39999999999995
sg7
I0
sg8
F4.0
sa(dp426
g5
F1.5
sg6
F21.39999999999994
sg7
I0
sg8
F4.0
saa(lp427
(dp428
g5
F-1.5
sg6
F19.799999999999947
sg7
I0
sg8
F4.0
sa(dp429
g5
F1.5
sg6
F21.79999999999994
sg7
I0
sg8
F4.0
saa(lp430
(dp431
g5
F-1.5
sg6
F20.199999999999946
sg7
I0
sg8
F4.0
sa(dp432
g5
F1.5
sg6
F22.19999999999994
sg7
I0
sg8
F4.0
saa(lp433
(dp434
g5
F-1.5
sg6
F20.599999999999945
sg7
I0
sg8
F4.0
sa(dp435
g5
F1.5
sg6
F22.599999999999937
sg7
I0
sg8
F4.0
saa(lp436
(dp437
g5
F-1.5
sg6
F20.999999999999943
sg7
I0
sg8
F4.0
sa(dp438
g5
F1.5
sg6
F22.999999999999936
sg7
I0
sg8
F4.0
saa(lp439
(dp440
g5
F-1.5
sg6
F21.39999999999994
sg7
I0
sg8
F4.0
sa(dp441
g5
F1.5
sg6
F23.399999999999935
sg7
I0
sg8
F4.0
saa(lp442
(dp443
g5
F-1.5
sg6
F21.79999999999994
sg7
I0
sg8
F4.0
sa(dp444
g5
F1.5
sg6
F23.799999999999933
sg7
I0
sg8
F4.0
saa(lp445
(dp446
g5
F-1.5
sg6
F22.19999999999994
sg7
I0
sg8
F4.0
sa(dp447
g5
F1.5
sg6
F24.199999999999932
sg7
I0
sg8
F4.0
saa(lp448
(dp449
g5
F-1.5
sg6
F22.599999999999937
sg7
I0
sg8
F4.0
sa(dp450
g5
F1.5
sg6
F24.59999999999993
sg7
I0
sg8
F4.0
saa(lp451
(dp452
g5
F-1.5
sg6
F22.999999999999936
sg7
I0
sg8
F4.0
sa(dp453
g5
F1.5
sg6
F24.99999999999993
sg7
I0
sg8
F4.0
saa(lp454
(dp455
g5
F-1.5
sg6
F23.399999999999935
sg7
I0
sg8
F4.0
sa(dp456
g5
F1.5
sg6
F25.399999999999928
sg7
I0
sg8
F4.0
saa(lp457
(dp458
g5
F-1.5
sg6
F23.799999999999933
sg7
I0
sg8
F4.0
sa(dp459
g5
F1.5
sg6
F25.799999999999926
sg7
I0
sg8
F4.0
saa(lp460
(dp461
g5
F-1.5
sg6
F24.199999999999932
sg7
I0
sg8
F4.0
sa(dp462
g5
F1.5
sg6
F26.199999999999925
sg7
I0
sg8
F4.0
saa(lp463
(dp464
g5
F-1.5
sg6
F24.59999999999993
sg7
I0
sg8
F4.0
sa(dp465
g5
F1.5
sg6
F26.599999999999923
sg7
I0
sg8
F4.0
saa(lp466
(dp467
g5
F-1.5
sg6
F24.99999999999993
sg7
I0
sg8
F4.0
sa(dp468
g5
F1.5
sg6
F26.999999999999922
sg7
I0
sg8
F4.0
saa(lp469
(dp470
g5
F-1.5
sg6
F25.399999999999928
sg7
I0
sg8
F4.0
sa(dp471
g5
F1.5
sg6
F27.39999999999992
sg7
I0
sg8
F4.0
saa(lp472
(dp473
g5
F-1.5
sg6
F25.799999999999926
sg7
I0
sg8
F4.0
sa(dp474
g5
F1.5
sg6
F27.79999999999992
sg7
I0
sg8
F4.0
saa(lp475
(dp476
g5
F-1.5
sg6
F26.199999999999925
sg7
I0
sg8
F4.0
sa(dp477
g5
F1.5
sg6
F28.199999999999918
sg7
I0
sg8
F4.0
saa(lp478
(dp479
g5
F-1.5
sg6
F26.599999999999923
sg7
I0
sg8
F4.0
sa(dp480
g5
F1.5
sg6
F28.599999999999916
sg7
I0
sg8
F4.0
saa(lp481
(dp482
g5
F-1.5
sg6
F26.999999999999922
sg7
I0
sg8
F4.0
sa(dp483
g5
F1.5
sg6
F28.999999999999915
sg7
I0
sg8
F4.0
saa(lp484
(dp485
g5
F-1.5
sg6
F27.39999999999992
sg7
I0
sg8
F4.0
sa(dp486
g5
F1.5
sg6
F29.399999999999913
sg7
I0
sg8
F4.0
saa(lp487
(dp488
g5
F-1.5
sg6
F27.79999999999992
sg7
I0
sg8
F4.0
sa(dp489
g5
F1.5
sg6
F29.799999999999912
sg7
I0
sg8
F4.0
saa(lp490
(dp491
g5
F-1.5
sg6
F28.199999999999918
sg7
I0
sg8
F4.0
sa(dp492
g5
F1.5
sg6
F30.19999999999991
sg7
I0
sg8
F4.0
saa(lp493
(dp494
g5
F-1.5
sg6
F28.599999999999916
sg7
I0
sg8
F4.0
sa(dp495
g5
F1.5
sg6
F30.59999999999991
sg7
I0
sg8
F4.0
saa(lp496
(dp497
g5
F-1.5
sg6
F28.999999999999915
sg7
I0
sg8
F4.0
sa(dp498
g5
F1.5
sg6
F30.999999999999908
sg7
I0
sg8
F4.0
saa(lp499
(dp500
g5
F-1.5
sg6
F29.399999999999913
sg7
I0
sg8
F4.0
sa(dp501
g5
F1.5
sg6
F31.399999999999906
sg7
I0
sg8
F4.0
saa(lp502
(dp503
g5
F-1.5
sg6
F29.799999999999912
sg7
I0
sg8
F4.0
sa(dp504
g5
F1.5
sg6
F31.799999999999905
sg7
I0
sg8
F4.0
saa(lp505
(dp506
g5
F-1.5
sg6
F30.19999999999991
sg7
I0
sg8
F4.0
sa(dp507
g5
F1.5
sg6
F32.1999999999999
sg7
I0
sg8
F4.0
saa(lp508
(dp509
g5
F-1.5
sg6
F30.59999999999991
sg7
I0
sg8
F4.0
sa(dp510
g5
F1.5
sg6
F32.5999999999999
sg7
I0
sg8
F4.0
saa(lp511
(dp512
g5
F-1.5
sg6
F30.999999999999908
sg7
I0
sg8
F4.0
sa(dp513
g5
F1.5
sg6
F32.9999999999999
sg7
I0
sg8
F4.0
saa(lp514
(dp515
g5
F-1.5
sg6
F31.399999999999906
sg7
I0
sg8
F4.0
sa(dp516
g5
F1.519983338887887
sg6
F33.39933366658721
sg7
F0.09999999999997478
sg8
F4.0
saa(lp517
(dp518
g5
F-1.5
sg6
F31.399999999999906
sg7
I0
sg8
F4.0
sa(dp519
g5
F1.579733688635013
sg6
F33.794677323180146
sg7
F0.1999999999999744
sg8
F4.0
saa(lp520
(dp521
g5
F-1.5
sg6
F31.799999999999905
sg7
I0
sg8
F4.0
sa(dp522
g5
F1.6786540434975454
sg6
F34.18208082664526
sg7
F0.29999999999997407
sg8
F4.0
saa(lp523
(dp524
g5
F-1.5
sg6
F32.1999999999999
sg7
I0
sg8
F4.0
sa(dp525
g5
F1.8157560239884187
sg6
F34.55767336923451
sg7
F0.39999999999997377
sg8
F4.0
saa(lp526
(dp527
g5
F-1.5
sg6
F32.5999999999999
sg7
I0
sg8
F4.0
sa(dp528
g5
F1.989669752438458
sg6
F34.917702154416716
sg7
F0.49999999999997335
sg8
F4.0
saa(lp529
(dp530
g5
F-1.5
sg6
F32.9999999999999
sg7
I0
sg8
F4.0
sa(dp531
g5
F2.198657540361226
sg6
F35.25856989358005
sg7
F0.599999999999973
sg8
F4.0
saa(lp532
(dp533
g5
F-1.4885745380483257
sg6
F33.399782348463056
sg7
F0.05714285714284272
sg8
F4.0
sa(dp534
g5
F2.440631250861976
sg6
F35.57687074895068
sg7
F0.6999999999999726
sg8
F4.0
saa(lp535
(dp536
g5
F-1.454335449673522
sg6
F33.798259640351546
sg7
F0.11428571428569967
sg8
F4.0
sa(dp537
g5
F2.713173162611259
sg6
F35.869424363598014
sg7
F0.7999999999999723
sg8
F4.0
saa(lp538
(dp539
g5
F-1.3973945055617278
sg6
F34.194131079340494
sg7
F0.1714285714285566
sg8
F4.0
sa(dp540
g5
F3.013560126917254
sg6
F36.13330763850986
sg7
F0.8999999999999719
sg8
F4.0
saa(lp541
(dp542
g5
F-1.3179375847387842
sg6
F34.586104375697346
sg7
F0.22857142857141355
sg8
F4.0
sa(dp543
g5
F3.3387907765273455
sg6
F36.36588393923152
sg7
F0.9999999999999716
sg8
F4.0
saa(lp544
(dp545
g5
F-1.2162240677834513
sg6
F34.972899964855365
sg7
F0.2857142857142705
sg8
F4.0
sa(dp546
g5
F3.685615514297588
sg6
F36.56482944024569
sg7
F1.0999999999999712
sg8
F4.0
saa(lp547
(dp548
g5
F-1.092585990100856
sg6
F35.35325518444684
sg7
F0.34285714285712743
sg8
F4.0
sa(dp549
g5
F4.050568982093197
sg6
F36.72815634386886
sg7
F1.1999999999999709
sg8
F4.0
saa(lp550
(dp551
g5
F-0.9474269580202384
sg6
F35.725928396160455
sg7
F0.39999999999998437
sg8
F4.0
sa(dp552
g5
F4.430004685501537
sg6
F36.85423274166874
sg7
F1.2999999999999705
sg8
F4.0
saa(lp553
(dp554
g5
F-0.7812208312553075
sg6
F36.0897030389674
sg7
F0.4571428571428413
sg8
F4.0
sa(dp555
g5
F4.820131428398919
sg6
F36.94179891995382
sg7
F1.3999999999999702
sg8
F4.0
saa(lp556
(dp557
g5
F-0.5945101760282014
sg6
F36.443391600484716
sg7
F0.5142857142856982
sg8
F4.0
sa(dp558
g5
F5.217051193329068
sg6
F36.98997994641621
sg7
F1.4999999999999698
sg8
F4.0
saa(lp559
(dp560
g5
F-0.38790449390671444
sg6
F36.78583949351172
sg7
F0.5714285714285552
sg8
F4.0
sa(dp561
g5
F5.6168146928202916
sg6
F37.0
sg7
F1.5707963267948966
sg8
F4.0
saa(lp562
(dp563
g5
F-0.16207823213658212
sg6
F37.115928825084936
sg7
F0.6285714285714121
sg8
F4.0
sa(dp564
g5
F6.01681469282029
sg6
F37.0
sg7
F1.5707963267948966
sg8
F4.0
saa(lp565
(dp566
g5
F0.08223141803603973
sg6
F37.43258204574763
sg7
F0.6857142857142691
sg8
F4.0
sa(dp567
g5
F6.416814692820289
sg6
F37.0
sg7
F1.5707963267948966
sg8
F4.0
saa(lp568
(dp569
g5
F0.34422692786472986
sg6
F37.73476546712135
sg7
F0.742857142857126
sg8
F4.0
sa(dp570
g5
F6.816814692820287
sg6
F37.0
sg7
F1.5707963267948966
sg8
F4.0
saa(lp571
(dp572
g5
F0.6230530345697565
sg6
F38.02149263629658
sg7
F0.799999999999983
sg8
F4.0
sa(dp573
g5
F7.216814692820286
sg6
F37.0
sg7
F1.5707963267948966
sg8
F4.0
saa(lp574
(dp575
g5
F0.9177995332730369
sg6
F38.291827556027044
sg7
F0.85714285714284
sg8
F4.0
sa(dp576
g5
F7.6168146928202844
sg6
F37.0
sg7
F1.5707963267948966
sg8
F4.0
saa(lp577
(dp578
g5
F1.2275042482870475
sg6
F38.544887740215735
sg7
F0.9142857142856968
sg8
F4.0
sa(dp579
g5
F8.016814692820283
sg6
F37.0
sg7
F1.5707963267948966
sg8
F4.0
saa(lp580
(dp581
g5
F1.551156174058176
sg6
F38.77984709471809
sg7
F0.9714285714285538
sg8
F4.0
sa(dp582
g5
F8.416814692820282
sg6
F37.0
sg7
F1.5707963267948966
sg8
F4.0
saa(lp583
(dp584
g5
F1.887698775511141
sg6
F38.995938614058375
sg7
F1.0285714285714107
sg8
F4.0
sa(dp585
g5
F8.81681469282028
sg6
F37.0
sg7
F1.5707963267948966
sg8
F4.0
saa(lp586
(dp587
g5
F2.236033437020793
sg6
F39.192456885255936
sg7
F1.0857142857142676
sg8
F4.0
sa(dp588
g5
F9.216814692820279
sg6
F37.0
sg7
F1.5707963267948966
sg8
F4.0
saa(lp589
(dp590
g5
F2.5950230487524086
sg6
F39.368760390587816
sg7
F1.1428571428571246
sg8
F4.0
sa(dp591
g5
F9.616814692820277
sg6
F37.0
sg7
F1.5707963267948966
sg8
F4.0
saa(lp592
(dp593
g5
F2.9634957186631645
sg6
F39.52427360177054
sg7
F1.1999999999999815
sg8
F4.0
sa(dp594
g5
F10.016814692820276
sg6
F37.0
sg7
F1.5707963267948966
sg8
F4.0
saa(lp595
(dp596
g5
F3.3402485980472596
sg6
F39.658488858724866
sg7
F1.2571428571428385
sg8
F4.0
sa(dp597
g5
F10.416814692820275
sg6
F37.0
sg7
F1.5707963267948966
sg8
F4.0
saa(lp598
(dp599
g5
F3.7240518081365255
sg6
F39.77096802679032
sg7
F1.3142857142856954
sg8
F4.0
sa(dp600
g5
F10.816483555226796
sg6
F36.987460113815686
sg7
F1.6499999999999648
sg8
F4.0
saa(lp601
(dp602
g5
F4.113652454938446
sg6
F39.86134392697974
sg7
F1.3714285714285523
sg8
F4.0
sa(dp603
g5
F11.212984222597829
sg6
F36.93594378749577
sg7
F1.7499999999999645
sg8
F4.0
saa(lp604
(dp605
g5
F4.507778719205483
sg6
F39.929321534604846
sg7
F1.4285714285714093
sg8
F4.0
sa(dp606
g5
F11.602360987297914
sg6
F36.84510081190124
sg7
F1.8499999999999641
sg8
F4.0
saa(lp607
(dp608
g5
F4.9051440081843385
sg6
F39.97467894236007
sg7
F1.4857142857142662
sg8
F4.0
sa(dp609
g5
F11.980723325405013
sg6
F36.71583886001553
sg7
F1.9499999999999638
sg8
F4.0
saa(lp610
(dp611
g5
F5.304451155592114
sg6
F39.99726808472069
sg7
F1.5428571428571232
sg8
F4.0
sa(dp612
g5
F12.344290765506722
sg6
F36.54944947453357
sg7
F2.0499999999999634
sg8
F4.0
saa(lp613
(dp614
g5
F5.704425712435587
sg6
F40.0
sg7
F1.5707963267948966
sg8
F4.0
sa(dp615
g5
F12.68943066192096
sg6
F36.34759516319407
sg7
F2.149999999999963
sg8
F4.0
saa(lp616
(dp617
g5
F6.104425712435585
sg6
F40.0
sg7
F1.5707963267948966
sg8
F4.0
sa(dp618
g5
F13.01269449089084
sg6
F36.11229278755178
sg7
F2.2499999999999627
sg8
F4.0
saa(lp619
(dp620
g5
F6.504425712435584
sg6
F40.0
sg7
F1.5707963267948966
sg8
F4.0
sa(dp621
g5
F13.310852307094109
sg6
F35.84589341116348
sg7
F2.3499999999999623
sg8
F4.0
saa(lp622
(dp623
g5
F6.904425712435582
sg6
F40.0
sg7
F1.5707963267948966
sg8
F4.0
sa(dp624
g5
F13.580925016189132
sg6
F35.55105880853813
sg7
F2.449999999999962
sg8
F4.0
saa(lp625
(dp626
g5
F7.304425712435581
sg6
F40.0
sg7
F1.5707963267948966
sg8
F4.0
sa(dp627
g5
F13.820214140940804
sg6
F35.230734869565794
sg7
F2.5499999999999616
sg8
F4.0
saa(lp628
(dp629
g5
F7.7044257124355795
sg6
F40.0
sg7
F1.5707963267948966
sg8
F4.0
sa(dp630
g5
F14.02632878351307
sg6
F34.888122165159665
sg7
F2.6499999999999613
sg8
F4.0
saa(lp631
(dp632
g5
F8.104425712435578
sg6
F40.0
sg7
F1.5707963267948966
sg8
F4.0
sa(dp633
g5
F14.197209514529796
sg6
F34.52664396820947
sg7
F2.749999999999961
sg8
F4.0
saa(lp634
(dp635
g5
F8.504425712435577
sg6
F40.0
sg7
F1.5707963267948966
sg8
F4.0
sa(dp636
g5
F14.331148950212317
sg6
F34.14991204937033
sg7
F2.8499999999999606
sg8
F4.0
saa(lp637
(dp638
g5
F8.904425712435575
sg6
F40.0
sg7
F1.5707963267948966
sg8
F4.0
sa(dp639
g5
F14.426808811993785
sg6
F33.761690589444264
sg7
F2.94999999999996
sg8
F4.0
saa(lp640
(dp641
g5
F9.304425712435574
sg6
F40.0
sg7
F1.5707963267948966
sg8
F4.0
sa(dp642
g5
F14.48323329815623
sg6
F33.36585856892991
sg7
F3.04999999999996
sg8
F4.0
saa(lp643
(dp644
g5
F9.704425712435572
sg6
F40.0
sg7
F1.5707963267948966
sg8
F4.0
sa(dp645
g5
F14.5
sg6
F32.966370614359334
sg7
F3.141592653589793
sg8
F4.0
saa(lp646
(dp647
g5
F10.104425712435571
sg6
F40.0
sg7
F1.5707963267948966
sg8
F4.0
sa(dp648
g5
F14.5
sg6
F32.566370614359336
sg7
F3.141592653589793
sg8
F4.0
saa(lp649
(dp650
g5
F10.50442571214072
sg6
F39.99999860093358
sg7
F1.5714285714285494
sg8
F4.0
sa(dp651
g5
F14.5
sg6
F32.16637061435934
sg7
F3.141592653589793
sg8
F4.0
saa(lp652
(dp653
g5
F10.904200757014195
sg6
F39.98832038103786
sg7
F1.6285714285714064
sg8
F4.0
sa(dp654
g5
F14.5
sg6
F31.76637061435934
sg7
F3.141592653589793
sg8
F4.0
saa(lp655
(dp656
g5
F11.302656321781928
sg6
F39.953829364393656
sg7
F1.6857142857142633
sg8
F4.0
sa(dp657
g5
F14.5
sg6
F31.36637061435934
sg7
F3.141592653589793
sg8
F4.0
saa(lp658
(dp659
g5
F11.698491681045432
sg6
F39.89663814408621
sg7
F1.7428571428571202
sg8
F4.0
sa(dp660
g5
F14.5
sg6
F30.96637061435934
sg7
F3.141592653589793
sg8
F4.0
saa(lp661
(dp662
g5
F12.090414662851455
sg6
F39.8169334161474
sg7
F1.7999999999999772
sg8
F4.0
sa(dp663
g5
F14.5
sg6
F30.566370614359343
sg7
F3.141592653589793
sg8
F4.0
saa(lp664
(dp665
g5
F12.47714586688096
sg6
F39.714975370101925
sg7
F1.8571428571428341
sg8
F4.0
sa(dp666
g5
F14.5
sg6
F30.166370614359344
sg7
F3.141592653589793
sg8
F4.0
saa(lp667
(dp668
g5
F12.857422840946189
sg6
F39.591096839600006
sg7
F1.914285714285691
sg8
F4.0
sa(dp669
g5
F14.5
sg6
F29.766370614359346
sg7
F3.141592653589793
sg8
F4.0
saa(lp670
(dp671
g5
F13.230004202161918
sg6
F39.445702215909314
sg7
F1.971428571428548
sg8
F4.0
sa(dp672
g5
F14.5
sg6
F29.366370614359347
sg7
F3.141592653589793
sg8
F4.0
saa(lp673
(dp674
g5
F13.593673689337725
sg6
F39.27926612781299
sg7
F2.028571428571405
sg8
F4.0
sa(dp675
g5
F14.5
sg6
F28.96637061435935
sg7
F3.141592653589793
sg8
F4.0
saa(lp676
(dp677
g5
F13.947244133362547
sg6
F39.092331892223
sg7
F2.085714285714262
sg8
F4.0
sa(dp678
g5
F14.5
sg6
F28.56637061435935
sg7
F3.141592653589793
sg8
F4.0
saa(lp679
(dp680
g5
F14.289561332620547
sg6
F38.885509740566846
sg7
F2.142857142857119
sg8
F4.0
sa(dp681
g5
F14.5
sg6
F28.16637061435935
sg7
F3.141592653589793
sg8
F4.0
saa(lp682
(dp683
g5
F14.619507820787282
sg6
F38.65947482673723
sg7
F2.1999999999999758
sg8
F4.0
sa(dp684
g5
F14.5
sg6
F27.766370614359353
sg7
F3.141592653589793
sg8
F4.0
saa(lp685
(dp686
g5
F14.936006514706577
sg6
F38.4149650231078
sg7
F2.2571428571428327
sg8
F4.0
sa(dp687
g5
F14.5
sg6
F27.366370614359354
sg7
F3.141592653589793
sg8
F4.0
saa(lp688
(dp689
g5
F15.238024230439816
sg6
F38.15277851180945
sg7
F2.3142857142856896
sg8
F4.0
sa(dp690
g5
F14.5
sg6
F26.966370614359356
sg7
F3.141592653589793
sg8
F4.0
saa(lp691
(dp692
g5
F15.524575056009905
sg6
F37.87377117913049
sg7
F2.3714285714285466
sg8
F4.0
sa(dp693
g5
F14.5
sg6
F26.566370614359357
sg7
F3.141592653589793
sg8
F4.0
saa(lp694
(dp695
g5
F15.794723569829763
sg6
F37.5788538215463
sg7
F2.4285714285714035
sg8
F4.0
sa(dp696
g5
F14.5
sg6
F26.16637061435936
sg7
F3.141592653589793
sg8
F4.0
saa(lp697
(dp698
g5
F16.04758789430912
sg6
F37.26898917249914
sg7
F2.4857142857142605
sg8
F4.0
sa(dp699
g5
F14.5
sg6
F25.76637061435936
sg7
F3.141592653589793
sg8
F4.0
saa(lp700
(dp701
g5
F16.282342574671326
sg6
F36.945188759634114
sg7
F2.5428571428571174
sg8
F4.0
sa(dp702
g5
F14.5
sg6
F25.36637061435936
sg7
F3.141592653589793
sg8
F4.0
saa(lp703
(dp704
g5
F16.498221273582537
sg6
F36.6085096027504
sg7
F2.5999999999999743
sg8
F4.0
sa(dp705
g5
F14.5
sg6
F24.966370614359363
sg7
F3.141592653589793
sg8
F4.0
saa(lp706
(dp707
g5
F16.694519272796867
sg6
F36.26005076324712
sg7
F2.6571428571428313
sg8
F4.0
sa(dp708
g5
F14.5
sg6
F24.566370614359364
sg7
F3.141592653589793
sg8
F4.0
saa(lp709
(dp710
g5
F16.870595773651118
sg6
F35.90094975632783
sg7
F2.714285714285688
sg8
F4.0
sa(dp711
g5
F14.5
sg6
F24.166370614359366
sg7
F3.141592653589793
sg8
F4.0
saa(lp712
(dp713
g5
F17.025875988899255
sg6
F35.532378837675786
sg7
F2.771428571428545
sg8
F4.0
sa(dp714
g5
F14.5
sg6
F23.766370614359367
sg7
F3.141592653589793
sg8
F4.0
saa(lp715
(dp716
g5
F17.15985301905809
sg6
F35.15554117672171
sg7
F2.8285714285714016
sg8
F4.0
sa(dp717
g5
F14.5
sg6
F23.36637061435937
sg7
F3.141592653589793
sg8
F4.0
saa(lp718
(dp719
g5
F17.272089507138922
sg6
F34.771666928996225
sg7
F2.885714285714259
sg8
F4.0
sa(dp720
g5
F14.5
sg6
F22.96637061435937
sg7
F3.141592653589793
sg8
F4.0
saa(lp721
(dp722
g5
F17.362219066363412
sg6
F34.382009220388376
sg7
F2.942857142857116
sg8
F4.0
sa(dp723
g5
F14.5
sg6
F22.56637061435937
sg7
F3.141592653589793
sg8
F4.0
saa(lp724
(dp725
g5
F17.42994747620309
sg6
F33.98784005641926
sg7
F2.999999999999973
sg8
F4.0
sa(dp726
g5
F14.5
sg6
F22.166370614359373
sg7
F3.141592653589793
sg8
F4.0
saa(lp727
(dp728
g5
F17.475053642838056
sg6
F33.59044616988472
sg7
F3.05714285714283
sg8
F4.0
sa(dp729
g5
F14.5
sg6
F21.766370614359374
sg7
F3.141592653589793
sg8
F4.0
saa(lp730
(dp731
g5
F17.497390320899544
sg6
F33.19112482042204
sg7
F3.1142857142856863
sg8
F4.0
sa(dp732
g5
F14.5
sg6
F21.366370614359376
sg7
F3.141592653589793
sg8
F4.0
saa(lp733
(dp734
g5
F17.5
sg6
F32.791148575128744
sg7
F3.141592653589793
sg8
F4.0
sa(dp735
g5
F14.5
sg6
F20.966370614359377
sg7
F3.141592653589793
sg8
F4.0
saa(lp736
(dp737
g5
F17.5
sg6
F32.391148575128746
sg7
F3.141592653589793
sg8
F4.0
sa(dp738
g5
F14.5
sg6
F20.56637061435938
sg7
F3.141592653589793
sg8
F4.0
saa(lp739
(dp740
g5
F17.5
sg6
F31.991148575128747
sg7
F3.141592653589793
sg8
F4.0
sa(dp741
g5
F14.5
sg6
F20.16637061435938
sg7
F3.141592653589793
sg8
F4.0
saa(lp742
(dp743
g5
F17.5
sg6
F31.59114857512875
sg7
F3.141592653589793
sg8
F4.0
sa(dp744
g5
F14.5
sg6
F19.76637061435938
sg7
F3.141592653589793
sg8
F4.0
saa(lp745
(dp746
g5
F17.5
sg6
F31.19114857512875
sg7
F3.141592653589793
sg8
F4.0
sa(dp747
g5
F14.5
sg6
F19.366370614359383
sg7
F3.141592653589793
sg8
F4.0
saa(lp748
(dp749
g5
F17.5
sg6
F30.79114857512875
sg7
F3.141592653589793
sg8
F4.0
sa(dp750
g5
F14.5
sg6
F18.966370614359377
sg7
F3.141592653589793
sg8
F4.0
saa(lp751
(dp752
g5
F17.5
sg6
F30.391148575128753
sg7
F3.141592653589793
sg8
F4.0
sa(dp753
g5
F14.5
sg6
F18.56637061435937
sg7
F3.141592653589793
sg8
F4.0
saa(lp754
(dp755
g5
F17.5
sg6
F29.991148575128754
sg7
F3.141592653589793
sg8
F4.0
sa(dp756
g5
F14.5
sg6
F18.166370614359366
sg7
F3.141592653589793
sg8
F4.0
saa(lp757
(dp758
g5
F17.5
sg6
F29.591148575128756
sg7
F3.141592653589793
sg8
F4.0
sa(dp759
g5
F14.5
sg6
F17.76637061435936
sg7
F3.141592653589793
sg8
F4.0
saa(lp760
(dp761
g5
F17.5
sg6
F29.191148575128757
sg7
F3.141592653589793
sg8
F4.0
sa(dp762
g5
F14.5
sg6
F17.366370614359354
sg7
F3.141592653589793
sg8
F4.0
saa(lp763
(dp764
g5
F17.5
sg6
F28.79114857512876
sg7
F3.141592653589793
sg8
F4.0
sa(dp765
g5
F14.5
sg6
F16.96637061435935
sg7
F3.141592653589793
sg8
F4.0
saa(lp766
(dp767
g5
F17.5
sg6
F28.391148575128753
sg7
F3.141592653589793
sg8
F4.0
sa(dp768
g5
F14.5
sg6
F16.566370614359343
sg7
F3.141592653589793
sg8
F4.0
saa(lp769
(dp770
g5
F17.5
sg6
F27.991148575128747
sg7
F3.141592653589793
sg8
F4.0
sa(dp771
g5
F14.5
sg6
F16.166370614359337
sg7
F3.141592653589793
sg8
F4.0
saa(lp772
(dp773
g5
F17.5
sg6
F27.59114857512874
sg7
F3.141592653589793
sg8
F4.0
sa(dp774
g5
F14.5
sg6
F15.766370614359332
sg7
F3.141592653589793
sg8
F4.0
saa(lp775
(dp776
g5
F17.5
sg6
F27.191148575128736
sg7
F3.141592653589793
sg8
F4.0
sa(dp777
g5
F14.5
sg6
F15.366370614359326
sg7
F3.141592653589793
sg8
F4.0
saa(lp778
(dp779
g5
F17.5
sg6
F26.79114857512873
sg7
F3.141592653589793
sg8
F4.0
sa(dp780
g5
F14.5
sg6
F14.96637061435932
sg7
F3.141592653589793
sg8
F4.0
saa(lp781
(dp782
g5
F17.5
sg6
F26.391148575128724
sg7
F3.141592653589793
sg8
F4.0
sa(dp783
g5
F14.5
sg6
F14.566370614359315
sg7
F3.141592653589793
sg8
F4.0
saa(lp784
(dp785
g5
F17.5
sg6
F25.99114857512872
sg7
F3.141592653589793
sg8
F4.0
sa(dp786
g5
F14.5
sg6
F14.166370614359309
sg7
F3.141592653589793
sg8
F4.0
saa(lp787
(dp788
g5
F17.5
sg6
F25.591148575128713
sg7
F3.141592653589793
sg8
F4.0
sa(dp789
g5
F14.5
sg6
F13.766370614359303
sg7
F3.141592653589793
sg8
F4.0
saa(lp790
(dp791
g5
F17.5
sg6
F25.191148575128707
sg7
F3.141592653589793
sg8
F4.0
sa(dp792
g5
F14.5
sg6
F13.366370614359298
sg7
F3.141592653589793
sg8
F4.0
saa(lp793
(dp794
g5
F17.5
sg6
F24.7911485751287
sg7
F3.141592653589793
sg8
F4.0
sa(dp795
g5
F14.5
sg6
F12.966370614359292
sg7
F3.141592653589793
sg8
F4.0
saa(lp796
(dp797
g5
F17.5
sg6
F24.391148575128696
sg7
F3.141592653589793
sg8
F4.0
sa(dp798
g5
F14.5
sg6
F12.566370614359286
sg7
F3.141592653589793
sg8
F4.0
saa(lp799
(dp800
g5
F17.5
sg6
F23.99114857512869
sg7
F3.141592653589793
sg8
F4.0
sa(dp801
g5
F14.5
sg6
F12.16637061435928
sg7
F3.141592653589793
sg8
F4.0
saa(lp802
(dp803
g5
F17.5
sg6
F23.591148575128685
sg7
F3.141592653589793
sg8
F4.0
sa(dp804
g5
F14.5
sg6
F11.766370614359275
sg7
F3.141592653589793
sg8
F4.0
saa(lp805
(dp806
g5
F17.5
sg6
F23.19114857512868
sg7
F3.141592653589793
sg8
F4.0
sa(dp807
g5
F14.5
sg6
F11.366370614359269
sg7
F3.141592653589793
sg8
F4.0
saa(lp808
(dp809
g5
F17.5
sg6
F22.791148575128673
sg7
F3.141592653589793
sg8
F4.0
sa(dp810
g5
F14.5
sg6
F10.966370614359263
sg7
F3.141592653589793
sg8
F4.0
saa(lp811
(dp812
g5
F17.5
sg6
F22.391148575128668
sg7
F3.141592653589793
sg8
F4.0
sa(dp813
g5
F14.5
sg6
F10.566370614359258
sg7
F3.141592653589793
sg8
F4.0
saa(lp814
(dp815
g5
F17.5
sg6
F21.991148575128662
sg7
F3.141592653589793
sg8
F4.0
sa(dp816
g5
F14.5
sg6
F10.166370614359252
sg7
F3.141592653589793
sg8
F4.0
saa(lp817
(dp818
g5
F17.5
sg6
F21.591148575128656
sg7
F3.141592653589793
sg8
F4.0
sa(dp819
g5
F14.5
sg6
F9.766370614359246
sg7
F3.141592653589793
sg8
F4.0
saa(lp820
(dp821
g5
F17.5
sg6
F21.19114857512865
sg7
F3.141592653589793
sg8
F4.0
sa(dp822
g5
F14.5
sg6
F9.36637061435924
sg7
F3.141592653589793
sg8
F4.0
saa(lp823
(dp824
g5
F17.5
sg6
F20.791148575128645
sg7
F3.141592653589793
sg8
F4.0
sa(dp825
g5
F14.5
sg6
F8.966370614359235
sg7
F3.141592653589793
sg8
F4.0
saa(lp826
(dp827
g5
F17.5
sg6
F20.39114857512864
sg7
F3.141592653589793
sg8
F4.0
sa(dp828
g5
F14.5
sg6
F8.56637061435923
sg7
F3.141592653589793
sg8
F4.0
saa(lp829
(dp830
g5
F17.5
sg6
F19.991148575128634
sg7
F3.141592653589793
sg8
F4.0
sa(dp831
g5
F14.5
sg6
F8.166370614359224
sg7
F3.141592653589793
sg8
F4.0
saa(lp832
(dp833
g5
F17.5
sg6
F19.591148575128628
sg7
F3.141592653589793
sg8
F4.0
sa(dp834
g5
F14.5
sg6
F7.766370614359218
sg7
F3.141592653589793
sg8
F4.0
saa(lp835
(dp836
g5
F17.5
sg6
F19.191148575128622
sg7
F3.141592653589793
sg8
F4.0
sa(dp837
g5
F14.5
sg6
F7.366370614359212
sg7
F3.141592653589793
sg8
F4.0
saa(lp838
(dp839
g5
F17.5
sg6
F18.791148575128616
sg7
F3.141592653589793
sg8
F4.0
sa(dp840
g5
F14.5
sg6
F6.966370614359207
sg7
F3.141592653589793
sg8
F4.0
saa(lp841
(dp842
g5
F17.5
sg6
F18.39114857512861
sg7
F3.141592653589793
sg8
F4.0
sa(dp843
g5
F14.5
sg6
F6.566370614359201
sg7
F3.141592653589793
sg8
F4.0
saa(lp844
(dp845
g5
F17.5
sg6
F17.991148575128605
sg7
F3.141592653589793
sg8
F4.0
sa(dp846
g5
F14.5
sg6
F6.166370614359195
sg7
F3.141592653589793
sg8
F4.0
saa(lp847
(dp848
g5
F17.5
sg6
F17.5911485751286
sg7
F3.141592653589793
sg8
F4.0
sa(dp849
g5
F14.5
sg6
F5.7663706143591895
sg7
F3.141592653589793
sg8
F4.0
saa(lp850
(dp851
g5
F17.5
sg6
F17.191148575128594
sg7
F3.141592653589793
sg8
F4.0
sa(dp852
g5
F14.5
sg6
F5.366370614359184
sg7
F3.141592653589793
sg8
F4.0
saa(lp853
(dp854
g5
F17.5
sg6
F16.791148575128588
sg7
F3.141592653589793
sg8
F4.0
sa(dp855
g5
F14.5
sg6
F4.966370614359178
sg7
F3.141592653589793
sg8
F4.0
saa(lp856
(dp857
g5
F17.5
sg6
F16.391148575128582
sg7
F3.141592653589793
sg8
F4.0
sa(dp858
g5
F14.5
sg6
F4.5663706143591725
sg7
F3.141592653589793
sg8
F4.0
saa(lp859
(dp860
g5
F17.5
sg6
F15.991148575128577
sg7
F3.141592653589793
sg8
F4.0
sa(dp861
g5
F14.5
sg6
F4.166370614359167
sg7
F3.141592653589793
sg8
F4.0
saa(lp862
(dp863
g5
F17.5
sg6
F15.591148575128571
sg7
F3.141592653589793
sg8
F4.0
sa(dp864
g5
F14.5
sg6
F3.766370614359161
sg7
F3.141592653589793
sg8
F4.0
saa(lp865
(dp866
g5
F17.5
sg6
F15.191148575128565
sg7
F3.141592653589793
sg8
F4.0
sa(dp867
g5
F14.5
sg6
F3.3663706143591554
sg7
F3.141592653589793
sg8
F4.0
saa(lp868
(dp869
g5
F17.5
sg6
F14.79114857512856
sg7
F3.141592653589793
sg8
F4.0
sa(dp870
g5
F14.5
sg6
F2.9663706143591497
sg7
F3.141592653589793
sg8
F4.0
saa(lp871
(dp872
g5
F17.5
sg6
F14.391148575128554
sg7
F3.141592653589793
sg8
F4.0
sa(dp873
g5
F14.5
sg6
F2.566370614359144
sg7
F3.141592653589793
sg8
F4.0
saa(lp874
(dp875
g5
F17.5
sg6
F13.991148575128548
sg7
F3.141592653589793
sg8
F4.0
sa(dp876
g5
F14.5
sg6
F2.1663706143591384
sg7
F3.141592653589793
sg8
F4.0
saa(lp877
(dp878
g5
F17.5
sg6
F13.591148575128543
sg7
F3.141592653589793
sg8
F4.0
sa(dp879
g5
F14.5
sg6
F1.7663706143591327
sg7
F3.141592653589793
sg8
F4.0
saa(lp880
(dp881
g5
F17.5
sg6
F13.191148575128537
sg7
F3.141592653589793
sg8
F4.0
sa(dp882
g5
F14.5
sg6
F1.366370614359127
sg7
F3.141592653589793
sg8
F4.0
saa(lp883
(dp884
g5
F17.5
sg6
F12.791148575128531
sg7
F3.141592653589793
sg8
F4.0
sa(dp885
g5
F14.5
sg6
F0.9663706143591213
sg7
F3.141592653589793
sg8
F4.0
saa(lp886
(dp887
g5
F17.5
sg6
F12.391148575128526
sg7
F3.141592653589793
sg8
F4.0
sa(dp888
g5
F14.5
sg6
F0.5663706143591156
sg7
F3.141592653589793
sg8
F4.0
saa(lp889
(dp890
g5
F17.5
sg6
F11.99114857512852
sg7
F3.141592653589793
sg8
F4.0
sa(dp891
g5
F14.5
sg6
F0.16637061435910994
sg7
F3.141592653589793
sg8
F4.0
saa(lp892
(dp893
g5
F17.5
sg6
F11.591148575128514
sg7
F3.141592653589793
sg8
F4.0
sa(dp894
g5
F14.5
sg6
F-0.23362938564089575
sg7
F3.141592653589793
sg8
F4.0
saa(lp895
(dp896
g5
F17.5
sg6
F11.191148575128508
sg7
F3.141592653589793
sg8
F4.0
sa(dp897
g5
F14.5
sg6
F-0.6336293856409014
sg7
F3.141592653589793
sg8
F4.0
saa(lp898
(dp899
g5
F17.5
sg6
F10.791148575128503
sg7
F3.141592653589793
sg8
F4.0
sa(dp900
g5
F14.5
sg6
F-1.0336293856409071
sg7
F3.141592653589793
sg8
F4.0
saa(lp901
(dp902
g5
F17.5
sg6
F10.391148575128497
sg7
F3.141592653589793
sg8
F4.0
sa(dp903
g5
F14.5
sg6
F-1.4336293856409128
sg7
F3.141592653589793
sg8
F4.0
saa(lp904
(dp905
g5
F17.5
sg6
F9.991148575128491
sg7
F3.141592653589793
sg8
F4.0
sa(dp906
g5
F14.5
sg6
F-1.8336293856409185
sg7
F3.141592653589793
sg8
F4.0
saa(lp907
(dp908
g5
F17.5
sg6
F9.591148575128486
sg7
F3.141592653589793
sg8
F4.0
sa(dp909
g5
F14.5
sg6
F-2.233629385640924
sg7
F3.141592653589793
sg8
F4.0
saa(lp910
(dp911
g5
F17.5
sg6
F9.19114857512848
sg7
F3.141592653589793
sg8
F4.0
sa(dp912
g5
F14.5
sg6
F-2.63362938564093
sg7
F3.141592653589793
sg8
F4.0
saa(lp913
(dp914
g5
F17.5
sg6
F8.791148575128474
sg7
F3.141592653589793
sg8
F4.0
sa(dp915
g5
F14.5
sg6
F-3.0336293856409355
sg7
F3.141592653589793
sg8
F4.0
saa(lp916
(dp917
g5
F17.5
sg6
F8.391148575128469
sg7
F3.141592653589793
sg8
F4.0
sa(dp918
g5
F14.5
sg6
F-3.4336293856409412
sg7
F3.141592653589793
sg8
F4.0
saa(lp919
(dp920
g5
F17.5
sg6
F7.991148575128463
sg7
F3.141592653589793
sg8
F4.0
sa(dp921
g5
F14.5
sg6
F-3.833629385640947
sg7
F3.141592653589793
sg8
F4.0
saa(lp922
(dp923
g5
F17.5
sg6
F7.591148575128457
sg7
F3.141592653589793
sg8
F4.0
sa(dp924
g5
F14.5
sg6
F-4.233629385640953
sg7
F3.141592653589793
sg8
F4.0
saa(lp925
(dp926
g5
F17.5
sg6
F7.191148575128452
sg7
F3.141592653589793
sg8
F4.0
sa(dp927
g5
F14.5
sg6
F-4.633629385640958
sg7
F3.141592653589793
sg8
F4.0
saa(lp928
(dp929
g5
F17.5
sg6
F6.791148575128446
sg7
F3.141592653589793
sg8
F4.0
sa(dp930
g5
F14.5
sg6
F-5.033629385640964
sg7
F3.141592653589793
sg8
F4.0
saa(lp931
(dp932
g5
F17.5
sg6
F6.39114857512844
sg7
F3.141592653589793
sg8
F4.0
sa(dp933
g5
F14.5
sg6
F-5.43362938564097
sg7
F3.141592653589793
sg8
F4.0
saa(lp934
(dp935
g5
F17.5
sg6
F5.991148575128435
sg7
F3.141592653589793
sg8
F4.0
sa(dp936
g5
F14.5
sg6
F-5.833629385640975
sg7
F3.141592653589793
sg8
F4.0
saa(lp937
(dp938
g5
F17.5
sg6
F5.591148575128429
sg7
F3.141592653589793
sg8
F4.0
sa(dp939
g5
F14.5
sg6
F-6.233629385640981
sg7
F3.141592653589793
sg8
F4.0
saa(lp940
(dp941
g5
F17.5
sg6
F5.191148575128423
sg7
F3.141592653589793
sg8
F4.0
sa(dp942
g5
F14.5
sg6
F-6.633629385640987
sg7
F3.141592653589793
sg8
F4.0
saa(lp943
(dp944
g5
F17.5
sg6
F4.7911485751284175
sg7
F3.141592653589793
sg8
F4.0
sa(dp945
g5
F14.5
sg6
F-7.033629385640992
sg7
F3.141592653589793
sg8
F4.0
saa(lp946
(dp947
g5
F17.5
sg6
F4.391148575128412
sg7
F3.141592653589793
sg8
F4.0
sa(dp948
g5
F14.5
sg6
F-7.433629385640998
sg7
F3.141592653589793
sg8
F4.0
saa(lp949
(dp950
g5
F17.5
sg6
F3.991148575128406
sg7
F3.141592653589793
sg8
F4.0
sa(dp951
g5
F14.5
sg6
F-7.833629385641004
sg7
F3.141592653589793
sg8
F4.0
saa(lp952
(dp953
g5
F17.5
sg6
F3.5911485751284005
sg7
F3.141592653589793
sg8
F4.0
sa(dp954
g5
F14.5
sg6
F-8.23362938564101
sg7
F3.141592653589793
sg8
F4.0
saa(lp955
(dp956
g5
F17.5
sg6
F3.191148575128395
sg7
F3.141592653589793
sg8
F4.0
sa(dp957
g5
F14.5
sg6
F-8.633629385641015
sg7
F3.141592653589793
sg8
F4.0
saa(lp958
(dp959
g5
F17.5
sg6
F2.791148575128389
sg7
F3.141592653589793
sg8
F4.0
sa(dp960
g5
F14.5
sg6
F-9.03362938564102
sg7
F3.141592653589793
sg8
F4.0
saa(lp961
(dp962
g5
F17.5
sg6
F2.3911485751283834
sg7
F3.141592653589793
sg8
F4.0
sa(dp963
g5
F14.5
sg6
F-9.433629385641026
sg7
F3.141592653589793
sg8
F4.0
saa(lp964
(dp965
g5
F17.5
sg6
F1.9911485751283777
sg7
F3.141592653589793
sg8
F4.0
sa(dp966
g5
F14.5
sg6
F-9.833629385641032
sg7
F3.141592653589793
sg8
F4.0
saa(lp967
(dp968
g5
F17.5
sg6
F1.591148575128372
sg7
F3.141592653589793
sg8
F4.0
sa(dp969
g5
F14.5
sg6
F-10.233629385641038
sg7
F3.141592653589793
sg8
F4.0
saa(lp970
(dp971
g5
F17.5
sg6
F1.1911485751283664
sg7
F3.141592653589793
sg8
F4.0
sa(dp972
g5
F14.5
sg6
F-10.633629385641044
sg7
F3.141592653589793
sg8
F4.0
saa(lp973
(dp974
g5
F17.5
sg6
F0.7911485751283607
sg7
F3.141592653589793
sg8
F4.0
sa(dp975
g5
F14.5
sg6
F-11.03362938564105
sg7
F3.141592653589793
sg8
F4.0
saa(lp976
(dp977
g5
F17.5
sg6
F0.391148575128355
sg7
F3.141592653589793
sg8
F4.0
sa(dp978
g5
F14.5
sg6
F-11.433629385641055
sg7
F3.141592653589793
sg8
F4.0
saa(lp979
(dp980
g5
F17.5
sg6
F-0.008851424871650693
sg7
F3.141592653589793
sg8
F4.0
sa(dp981
g5
F14.5
sg6
F-11.83362938564106
sg7
F3.141592653589793
sg8
F4.0
saa(lp982
(dp983
g5
F17.5
sg6
F-0.4088514248716564
sg7
F3.141592653589793
sg8
F4.0
sa(dp984
g5
F14.5
sg6
F-12.233629385641066
sg7
F3.141592653589793
sg8
F4.0
saa(lp985
(dp986
g5
F17.5
sg6
F-0.8088514248716621
sg7
F3.141592653589793
sg8
F4.0
sa(dp987
g5
F14.5
sg6
F-12.633629385641072
sg7
F3.141592653589793
sg8
F4.0
saa(lp988
(dp989
g5
F17.5
sg6
F-1.2088514248716677
sg7
F3.141592653589793
sg8
F4.0
sa(dp990
g5
F14.5
sg6
F-13.033629385641078
sg7
F3.141592653589793
sg8
F4.0
saa(lp991
(dp992
g5
F17.5
sg6
F-1.6088514248716734
sg7
F3.141592653589793
sg8
F4.0
sa(dp993
g5
F14.5
sg6
F-13.433629385641083
sg7
F3.141592653589793
sg8
F4.0
saa(lp994
(dp995
g5
F17.5
sg6
F-2.008851424871679
sg7
F3.141592653589793
sg8
F4.0
sa(dp996
g5
F14.5
sg6
F-13.833629385641089
sg7
F3.141592653589793
sg8
F4.0
saa(lp997
(dp998
g5
F17.5
sg6
F-2.408851424871685
sg7
F3.141592653589793
sg8
F4.0
sa(dp999
g5
F14.5
sg6
F-14.233629385641095
sg7
F3.141592653589793
sg8
F4.0
saa(lp1000
(dp1001
g5
F17.5
sg6
F-2.8088514248716905
sg7
F3.141592653589793
sg8
F4.0
sa(dp1002
g5
F14.5
sg6
F-14.6336293856411
sg7
F3.141592653589793
sg8
F4.0
saa(lp1003
(dp1004
g5
F17.5
sg6
F-3.208851424871696
sg7
F3.141592653589793
sg8
F4.0
sa(dp1005
g5
F14.5
sg6
F-15.033629385641106
sg7
F3.141592653589793
sg8
F4.0
saa(lp1006
(dp1007
g5
F17.5
sg6
F-3.608851424871702
sg7
F3.141592653589793
sg8
F4.0
sa(dp1008
g5
F14.5
sg6
F-15.433629385641112
sg7
F3.141592653589793
sg8
F4.0
saa(lp1009
(dp1010
g5
F17.5
sg6
F-4.0088514248717075
sg7
F3.141592653589793
sg8
F4.0
sa(dp1011
g5
F14.5
sg6
F-15.833629385641117
sg7
F3.141592653589793
sg8
F4.0
saa(lp1012
(dp1013
g5
F17.5
sg6
F-4.408851424871713
sg7
F3.141592653589793
sg8
F4.0
sa(dp1014
g5
F14.5
sg6
F-16.233629385641123
sg7
F3.141592653589793
sg8
F4.0
saa(lp1015
(dp1016
g5
F17.5
sg6
F-4.808851424871719
sg7
F3.141592653589793
sg8
F4.0
sa(dp1017
g5
F14.5
sg6
F-16.63362938564113
sg7
F3.141592653589793
sg8
F4.0
saa(lp1018
(dp1019
g5
F17.5
sg6
F-5.208851424871725
sg7
F3.141592653589793
sg8
F4.0
sa(dp1020
g5
F14.5
sg6
F-17.033629385641134
sg7
F3.141592653589793
sg8
F4.0
saa(lp1021
(dp1022
g5
F17.5
sg6
F-5.60885142487173
sg7
F3.141592653589793
sg8
F4.0
sa(dp1023
g5
F14.5
sg6
F-17.43362938564114
sg7
F3.141592653589793
sg8
F4.0
saa(lp1024
(dp1025
g5
F17.5
sg6
F-6.008851424871736
sg7
F3.141592653589793
sg8
F4.0
sa(dp1026
g5
F14.5
sg6
F-17.833629385641146
sg7
F3.141592653589793
sg8
F4.0
saa(lp1027
(dp1028
g5
F17.5
sg6
F-6.408851424871742
sg7
F3.141592653589793
sg8
F4.0
sa(dp1029
g5
F14.5
sg6
F-18.23362938564115
sg7
F3.141592653589793
sg8
F4.0
saa(lp1030
(dp1031
g5
F17.5
sg6
F-6.808851424871747
sg7
F3.141592653589793
sg8
F4.0
sa(dp1032
g5
F14.5
sg6
F-18.633629385641157
sg7
F3.141592653589793
sg8
F4.0
saa(lp1033
(dp1034
g5
F17.5
sg6
F-7.208851424871753
sg7
F3.141592653589793
sg8
F4.0
sa(dp1035
g5
F14.5
sg6
F-19.033629385641163
sg7
F3.141592653589793
sg8
F4.0
saa(lp1036
(dp1037
g5
F17.5
sg6
F-7.608851424871759
sg7
F3.141592653589793
sg8
F4.0
sa(dp1038
g5
F14.5
sg6
F-19.43362938564117
sg7
F3.141592653589793
sg8
F4.0
saa(lp1039
(dp1040
g5
F17.5
sg6
F-8.008851424871764
sg7
F3.141592653589793
sg8
F4.0
sa(dp1041
g5
F14.5
sg6
F-19.833629385641174
sg7
F3.141592653589793
sg8
F4.0
saa(lp1042
(dp1043
g5
F17.5
sg6
F-8.40885142487177
sg7
F3.141592653589793
sg8
F4.0
sa(dp1044
g5
F14.5
sg6
F-20.23362938564118
sg7
F3.141592653589793
sg8
F4.0
saa(lp1045
(dp1046
g5
F17.5
sg6
F-8.808851424871776
sg7
F3.141592653589793
sg8
F4.0
sa(dp1047
g5
F14.5
sg6
F-20.633629385641186
sg7
F3.141592653589793
sg8
F4.0
saa(lp1048
(dp1049
g5
F17.5
sg6
F-9.208851424871781
sg7
F3.141592653589793
sg8
F4.0
sa(dp1050
g5
F14.5
sg6
F-21.03362938564119
sg7
F3.141592653589793
sg8
F4.0
saa(lp1051
(dp1052
g5
F17.5
sg6
F-9.608851424871787
sg7
F3.141592653589793
sg8
F4.0
sa(dp1053
g5
F14.5
sg6
F-21.433629385641197
sg7
F3.141592653589793
sg8
F4.0
saa(lp1054
(dp1055
g5
F17.5
sg6
F-10.008851424871793
sg7
F3.141592653589793
sg8
F4.0
sa(dp1056
g5
F14.5
sg6
F-21.833629385641203
sg7
F3.141592653589793
sg8
F4.0
saa(lp1057
(dp1058
g5
F17.5
sg6
F-10.408851424871798
sg7
F3.141592653589793
sg8
F4.0
sa(dp1059
g5
F14.5
sg6
F-22.23362938564121
sg7
F3.141592653589793
sg8
F4.0
saa(lp1060
(dp1061
g5
F17.5
sg6
F-10.808851424871804
sg7
F3.141592653589793
sg8
F4.0
sa(dp1062
g5
F14.5
sg6
F-22.633629385641214
sg7
F3.141592653589793
sg8
F4.0
saa(lp1063
(dp1064
g5
F17.5
sg6
F-11.20885142487181
sg7
F3.141592653589793
sg8
F4.0
sa(dp1065
g5
F14.5
sg6
F-23.03362938564122
sg7
F3.141592653589793
sg8
F4.0
saa(lp1066
(dp1067
g5
F17.5
sg6
F-11.608851424871816
sg7
F3.141592653589793
sg8
F4.0
sa(dp1068
g5
F14.5
sg6
F-23.433629385641225
sg7
F3.141592653589793
sg8
F4.0
saa(lp1069
(dp1070
g5
F17.5
sg6
F-12.008851424871821
sg7
F3.141592653589793
sg8
F4.0
sa(dp1071
g5
F14.5
sg6
F-23.83362938564123
sg7
F3.141592653589793
sg8
F4.0
saa(lp1072
(dp1073
g5
F17.5
sg6
F-12.408851424871827
sg7
F3.141592653589793
sg8
F4.0
sa(dp1074
g5
F14.5
sg6
F-24.233629385641237
sg7
F3.141592653589793
sg8
F4.0
saa(lp1075
(dp1076
g5
F17.5
sg6
F-12.808851424871833
sg7
F3.141592653589793
sg8
F4.0
sa(dp1077
g5
F14.5
sg6
F-24.633629385641242
sg7
F3.141592653589793
sg8
F4.0
saa(lp1078
(dp1079
g5
F17.5
sg6
F-13.208851424871838
sg7
F3.141592653589793
sg8
F4.0
sa(dp1080
g5
F14.5
sg6
F-25.033629385641248
sg7
F3.141592653589793
sg8
F4.0
saa(lp1081
(dp1082
g5
F17.5
sg6
F-13.608851424871844
sg7
F3.141592653589793
sg8
F4.0
sa(dp1083
g5
F14.5
sg6
F-25.433629385641254
sg7
F3.141592653589793
sg8
F4.0
saa(lp1084
(dp1085
g5
F17.5
sg6
F-14.00885142487185
sg7
F3.141592653589793
sg8
F4.0
sa(dp1086
g5
F14.5
sg6
F-25.83362938564126
sg7
F3.141592653589793
sg8
F4.0
saa(lp1087
(dp1088
g5
F17.5
sg6
F-14.408851424871855
sg7
F3.141592653589793
sg8
F4.0
sa(dp1089
g5
F14.5
sg6
F-25.83362938564126
sg7
F3.141592653589793
sg8
F0.0
saa(lp1090
(dp1091
g5
F17.5
sg6
F-14.808851424871861
sg7
F3.141592653589793
sg8
F4.0
sa(dp1092
g5
F14.5
sg6
F-25.5
sg7
F3.141592653589793
sg8
F3.1761154813865475e-53
saa(lp1093
(dp1094
g5
F17.5
sg6
F-15.208851424871867
sg7
F3.141592653589793
sg8
F4.0
sa(dp1095
g5
F14.5
sg6
F-25.515968956764453
sg7
F3.141313723573521
sg8
F0.06653724660328136
saa(lp1096
(dp1097
g5
F17.5
sg6
F-15.608851424871872
sg7
F3.141592653589793
sg8
F4.0
sa(dp1098
g5
F14.500047134889552
sg6
F-25.57226857263883
sg7
F3.1393454524305566
sg8
F0.16804431017628005
saa(lp1099
(dp1100
g5
F17.5
sg6
F-16.008851424871878
sg7
F3.141592653589793
sg8
F4.0
sa(dp1101
g5
F14.500518320766714
sg6
F-25.68092121195089
sg7
F3.133716469045507
sg8
F0.2846787788768012
saa(lp1102
(dp1103
g5
F17.5
sg6
F-16.408851424871884
sg7
F3.141592653589793
sg8
F4.0
sa(dp1104
g5
F14.502576270978757
sg6
F-25.84620058263447
sg7
F3.1226494513565592
sg8
F0.40403788922784106
saa(lp1105
(dp1106
g5
F17.5
sg6
F-16.80885142487189
sg7
F3.141592653589793
sg8
F4.0
sa(dp1107
g5
F14.508470167361525
sg6
F-26.067530782400766
sg7
F3.1051139488932997
sg8
F0.5184971843531676
saa(lp1108
(dp1109
g5
F17.5
sg6
F-17.208851424871895
sg7
F3.141592653589793
sg8
F4.0
sa(dp1110
g5
F14.521444340806879
sg6
F-26.341314350506394
sg7
F3.0811621758876764
sg8
F0.6235465941077238
saa(lp1111
(dp1112
g5
F17.5
sg6
F-17.6088514248719
sg7
F3.141592653589793
sg8
F4.0
sa(dp1113
g5
F14.54522263569923
sg6
F-26.662101307124452
sg7
F3.052017687531939
sg8
F0.7167312263361361
saa(lp1114
(dp1115
g5
F17.5
sg6
F-18.008851424871906
sg7
F3.141592653589793
sg8
F4.0
sa(dp1116
g5
F14.583216029616377
sg6
F-27.023393743299128
sg7
F3.0199171955343225
sg8
F0.7969530657716847
saa(lp1117
(dp1118
g5
F17.5
sg6
F-18.408851424871912
sg7
F3.141592653589793
sg8
F4.0
sa(dp1119
g5
F14.637697986568469
sg6
F-27.41827894575018
sg7
F2.9877633634695044
sg8
F0.8639863484254356
saa(lp1120
(dp1121
g5
F17.5
sg6
F-18.808851424871918
sg7
F3.141592653589793
sg8
F4.0
sa(dp1122
g5
F14.70918188270094
sg6
F-27.83996948252558
sg7
F2.958696767626332
sg8
F0.918122135944544
saa(lp1123
(dp1124
g5
F17.5
sg6
F-19.208851424871924
sg7
F3.141592653589793
sg8
F4.0
sa(dp1125
g5
F14.796136170776741
sg6
F-28.282227422622192
sg7
F2.935700845257617
sg8
F0.9598971299142248
saa(lp1126
(dp1127
g5
F17.5
sg6
F-19.60885142487193
sg7
F3.141592653589793
sg8
F4.0
sa(dp1128
g5
F14.895046441424363
sg6
F-28.739602835436433
sg7
F2.9213100280255015
sg8
F0.9898848547016972
saa(lp1129
(dp1130
g5
F17.5
sg6
F-20.008851424871935
sg7
F3.141592653589793
sg8
F4.0
sa(dp1131
g5
F15.00074588402149
sg6
F-29.207433175822324
sg7
F2.917429846584244
sg8
F1.0085394076795577
saa(lp1132
(dp1133
g5
F17.5
sg6
F-20.40885142487194
sg7
F3.141592653589793
sg8
F4.0
sa(dp1134
g5
F15.106916693929834
sg6
F-29.68160327912312
sg7
F2.925233590936299
sg8
F1.0160876494206947
saa(lp1135
(dp1136
g5
F17.5
sg6
F-20.808851424871946
sg7
F3.141592653589793
sg8
F4.0
sa(dp1137
g5
F15.206698477095419
sg6
F-30.158122338070118
sg7
F2.945086619630144
sg8
F1.0124684527781873
saa(lp1138
(dp1139
g5
F17.5
sg6
F-21.208851424871952
sg7
F3.141592653589793
sg8
F4.0
sa(dp1140
g5
F15.293385526131754
sg6
F-30.63261839090064
sg7
F2.976462042289645
sg8
F0.9973193865534218
saa(lp1141
(dp1142
g5
F17.5
sg6
F-21.608851424871958
sg7
F3.141592653589793
sg8
F4.0
sa(dp1143
g5
F15.361213385104657
sg6
F-31.099881258420268
sg7
F3.017842724442618
sg8
F0.9700123996900452
saa(lp1144
(dp1145
g5
F17.5
sg6
F-22.008851424871963
sg7
F3.141592653589793
sg8
F4.0
sa(dp1146
g5
F15.40620012627781
sg6
F-31.553597512579184
sg7
F3.0666505385395566
sg8
F0.9297399072140755
saa(lp1147
(dp1148
g5
F17.5
sg6
F-22.008851424871963
sg7
F3.141592653589793
sg8
F4.0
sa(dp1149
g5
F15.426916997087684
sg6
F-31.986395940793273
sg7
F3.119296004493747
sg8
F0.8756496650501497
saa(lp1150
(dp1151
g5
F17.5
sg6
F-22.008851424871963
sg7
F3.141592653589793
sg8
F4.0
sa(dp1152
g5
F15.42495687272473
sg6
F-32.39023228946309
sg7
F3.1714688075815114
sg8
F0.8070197560040655
saa(lp1153
(dp1154
g5
F17.5
sg6
F-22.008851424871963
sg7
F3.141592653589793
sg8
F4.0
sa(dp1155
g5
F15.404837714695237
sg6
F-32.75699511677054
sg7
F3.218737811601401
sg8
F0.7234545654304655
saa(lp1156
(dp1157
g5
F17.5
sg6
F-22.008851424871963
sg7
F3.141592653589793
sg8
F4.0
sa(dp1158
g5
F15.373212385074108
sg6
F-33.079093219359095
sg7
F3.2573723078955177
sg8
F0.6250729142797288
saa(lp1159
(dp1160
g5
F17.5
sg6
F-22.008851424871963
sg7
F3.141592653589793
sg8
F4.0
sa(dp1161
g5
F15.337537012788935
sg6
F-33.349808122224765
sg7
F3.2851249638387494
sg8
F0.5126569668102154
saa(lp1162
(dp1163
g5
F17.5
sg6
F-22.008851424871963
sg7
F3.141592653589793
sg8
F4.0
sa(dp1164
g5
F15.304610039803844
sg6
F-33.56338002799352
sg7
F3.3016978340299405
sg8
F0.38773879560721825
saa(lp1165
(dp1166
g5
F17.5
sg6
F-22.008851424871963
sg7
F3.141592653589793
sg8
F4.0
sa(dp1167
g5
F15.279458439501294
sg6
F-33.71499356263756
sg7
F3.308783643022675
sg8
F0.25261721000253495
saa(lp1168
(dp1169
g5
F17.5
sg6
F-22.008851424871963
sg7
F3.141592653589793
sg8
F4.0
sa(dp1170
g5
F15.264904061514608
sg6
F-33.800872217914474
sg7
F3.3097748380461356
sg8
F0.11031253158868307
saa(lp1171
(dp1172
g5
F17.5
sg6
F-22.008851424871963
sg7
F3.141592653589793
sg8
F4.0
sa(dp1173
g5
F15.261911910547434
sg6
F-33.81856981606522
sg7
F3.309303627031868
sg8
F-0.03552611830857353
saa(lp1174
(dp1175
g5
F17.5
sg6
F-22.008851424871963
sg7
F3.141592653589793
sg8
F4.0
sa(dp1176
g5
F15.270605107633328
sg6
F-33.7673967215098
sg7
F3.312718128098425
sg8
F-0.18074962477733628
saa(lp1177
(dp1178
g5
F17.5
sg6
F-22.008851424871963
sg7
F3.141592653589793
sg8
F4.0
sa(dp1179
g5
F15.291652556556372
sg6
F-33.648862004606976
sg7
F3.325502197521236
sg8
F-0.32087001426117034
saa(lp1180
(dp1181
g5
F17.5
sg6
F-22.008851424871963
sg7
F3.141592653589793
sg8
F4.0
sa(dp1182
g5
F15.327588823839026
sg6
F-33.46706946299212
sg7
F3.3525777374074126
sg8
F-0.4512557927842032
saa(lp1183
(dp1184
g5
F17.5
sg6
F-22.008851424871963
sg7
F3.141592653589793
sg8
F4.0
sa(dp1185
g5
F15.383526070535114
sg6
F-33.22908617708397
sg7
F3.39743336282369
sg8
F-0.5673633054282847
saa(lp1186
(dp1187
g5
F17.5
sg6
F-22.008851424871963
sg7
F3.141592653589793
sg8
F4.0
sa(dp1188
g5
F15.466734077090624
sg6
F-32.945264338550636
sg7
F3.4611584703972995
sg8
F-0.6649998812793824
saa(lp1189
(dp1190
g5
F17.5
sg6
F-22.008851424871963
sg7
F3.141592653589793
sg8
F4.0
sa(dp1191
g5
F15.584841097136776
sg6
F-32.62927453661074
sg7
F3.54174122309479
sg8
F-0.7405852860088702
saa(lp1192
(dp1193
g5
F17.5
sg6
F-22.008851424871963
sg7
F3.141592653589793
sg8
F4.0
sa(dp1194
g5
F15.743052324727461
sg6
F-32.29739495151718
sg7
F3.6341966846604086
sg8
F-0.791335224326796
saa(lp1195
(dp1196
g5
F17.5
sg6
F-22.008851424871963
sg7
F3.141592653589793
sg8
F4.0
sa(dp1197
g5
F15.941538792871382
sg6
F-31.966802328064112
sg7
F3.73186877271536
sg8
F-0.8153350803153468
saa(lp1198
(dp1199
g5
F17.5
sg6
F-22.008851424871963
sg7
F3.141592653589793
sg8
F4.0
sa(dp1200
g5
F16.174667943788094
sg6
F-31.653583136383606
sg7
F3.830773757241756
sg8
F-0.8115608616174563
saa(lp1201
(dp1202
g5
F17.5
sg6
F-22.008851424871963
sg7
F3.141592653589793
sg8
F4.0
sa(dp1203
g5
F16.431816255177214
sg6
F-31.37112679428157
sg7
F3.9275558896650904
sg8
F-0.7800104596794776
saa(lp1204
(dp1205
g5
F17.5
sg6
F-22.008851424871963
sg7
F3.141592653589793
sg8
F4.0
sa(dp1206
g5
F16.698489094053986
sg6
F-31.128898373291296
sg7
F4.018835961886448
sg8
F-0.7210813025531899
saa(lp1207
(dp1208
g5
F17.5
sg6
F-22.008851424871963
sg7
F3.141592653589793
sg8
F4.0
sa(dp1209
g5
F16.957777373203886
sg6
F-30.931906981206318
sg7
F4.101341191567984
sg8
F-0.6357160575363308
saa(lp1210
(dp1211
g5
F17.5
sg6
F-22.008851424871963
sg7
F3.141592653589793
sg8
F4.0
sa(dp1212
g5
F17.192130076130457
sg6
F-30.780857999063663
sg7
F4.171738252964141
sg8
F-0.5260057042158176
saa(lp1213
(dp1214
g5
F17.5
sg6
F-22.008851424871963
sg7
F3.141592653589793
sg8
F4.0
sa(dp1215
g5
F17.3848880689975
sg6
F-30.672165096084715
sg7
F4.219437830800775
sg8
F-0.3960399076228975
saa(lp1216
(dp1217
g5
F17.5
sg6
F-22.008851424871963
sg7
F3.141592653589793
sg8
F4.0
sa(dp1218
g5
F17.52301137290964
sg6
F-30.600633681337175
sg7
F4.244150939596327
sg8
F-0.25207082308110795
saa(lp1219
(dp1220
g5
F17.5
sg6
F-22.008851424871963
sg7
F3.141592653589793
sg8
F4.0
sa(dp1221
g5
F17.598928467198565
sg6
F-30.562789580150298
sg7
F4.252279517696744
sg8
F-0.10137366997756009
saa(lp1222
(dp1223
g5
F17.5
sg6
F-22.008851424871963
sg7
F3.141592653589793
sg8
F4.0
sa(dp1224
g5
F17.610075137167296
sg6
F-30.557276408364324
sg7
F4.252682848265787
sg8
F0.04955886654218203
saa(lp1225
(dp1226
g5
F17.5
sg6
F-22.008851424871963
sg7
F3.141592653589793
sg8
F4.0
sa(dp1227
g5
F17.556977484145253
sg6
F-30.583541035837985
sg7
F4.254423976949736
sg8
F0.1972676472087463
saa(lp1228
(dp1229
g5
F17.5
sg6
F-22.008851424871963
sg7
F3.141592653589793
sg8
F4.0
sa(dp1230
g5
F17.44135872859422
sg6
F-30.639927565457246
sg7
F4.265865041054964
sg8
F0.3387137496063561
saa(lp1231
(dp1232
g5
F17.5
sg6
F-22.008851424871963
sg7
F3.141592653589793
sg8
F4.0
sa(dp1233
g5
F17.265640298452205
sg6
F-30.72154534595085
sg7
F4.293735133335312
sg8
F0.46857021417217476
saa(lp1234
(dp1235
g5
F17.5
sg6
F-22.008851424871963
sg7
F3.141592653589793
sg8
F4.0
sa(dp1236
g5
F17.033317893328217
sg6
F-30.81909646909324
sg7
F4.341044963737678
sg8
F0.5813122342851028
saa(lp1237
(dp1238
g5
F17.5
sg6
F-22.008851424871963
sg7
F3.141592653589793
sg8
F4.0
sa(dp1239
g5
F16.749747821688914
sg6
F-30.920070587168805
sg7
F4.404178192741117
sg8
F0.6728998257802729
saa(lp1240
(dp1241
g5
F17.5
sg6
F-22.008851424871963
sg7
F3.141592653589793
sg8
F4.0
sa(dp1242
g5
F16.42306046666145
sg6
F-31.01261445617469
sg7
F4.471801280784982
sg8
F0.7418583359144263
saa(lp1243
(dp1244
g5
F17.5
sg6
F-22.008851424871963
sg7
F3.141592653589793
sg8
F4.0
sa(dp1245
g5
F16.06389158900549
sg6
F-31.090336385958548
sg7
F4.528518491967446
sg8
F0.7893147557933167
saa(lp1246
(dp1247
g5
F17.5
sg6
F-22.008851424871963
sg7
F3.141592653589793
sg8
F4.0
sa(dp1248
g5
F15.68333239155763
sg6
F-31.15508893782434
sg7
F4.559764852558532
sg8
F0.8191365980243114
saa(lp1249
(dp1250
g5
F17.5
sg6
F-22.40885142487197
sg7
F3.141592653589793
sg8
F4.0
sa(dp1251
g5
F15.290528678337344
sg6
F-31.212193784365194
sg7
F4.576438117322997
sg8
F0.8347486305692061
saa(lp1252
(dp1253
g5
F17.5
sg6
F-22.808851424871975
sg7
F3.141592653589793
sg8
F4.0
sa(dp1254
g5
F14.8926750955688
sg6
F-31.26459853897992
sg7
F4.586425507376919
sg8
F0.8372915459825448
saa(lp1255
(dp1256
g5
F17.5
sg6
F-23.20885142487198
sg7
F3.141592653589793
sg8
F4.0
sa(dp1257
g5
F14.496172787465591
sg6
F-31.313068596846104
sg7
F4.595018715324489
sg8
F0.8270979166810971
saa(lp1258
(dp1259
g5
F17.5
sg6
F-23.608851424871986
sg7
F3.141592653589793
sg8
F4.0
sa(dp1260
g5
F14.107145762463517
sg6
F-31.357005999139528
sg7
F4.604692776898315
sg8
F0.8041517323063463
saa(lp1261
(dp1262
g5
F17.5
sg6
F-24.00885142487199
sg7
F3.141592653589793
sg8
F4.0
sa(dp1263
g5
F13.731748481370788
sg6
F-31.39555558169427
sg7
F4.6151827239148915
sg8
F0.7682274552258365
saa(lp1264
(dp1265
g5
F17.5
sg6
F-24.408851424871997
sg7
F3.141592653589793
sg8
F4.0
sa(dp1266
g5
F13.376334974639377
sg6
F-31.428503661394743
sg7
F4.624411220848149
sg8
F0.719010244647573
saa(lp1267
(dp1268
g5
F17.5
sg6
F-24.808851424872003
sg7
F3.141592653589793
sg8
F4.0
sa(dp1269
g5
F13.047389460350798
sg6
F-31.45556094934508
sg7
F4.635711115025021
sg8
F0.656223374088836
saa(lp1270
(dp1271
g5
F17.5
sg6
F-25.20885142487201
sg7
F3.141592653589793
sg8
F4.0
sa(dp1272
g5
F12.75148144526872
sg6
F-31.475929514203283
sg7
F4.650687431172634
sg8
F0.579642818185836
saa(lp1273
(dp1274
g5
F17.5
sg6
F-25.608851424872014
sg7
F3.141592653589793
sg8
F4.0
sa(dp1275
g5
F12.495342747028126
sg6
F-31.489313633082123
sg7
F4.668194711439741
sg8
F0.4890566001367544
saa(lp1276
(dp1277
g5
F17.5
sg6
F-25.608851424872014
sg7
F3.141592653589793
sg8
F0.0
sa(dp1278
g5
F12.285827700136206
sg6
F-31.49653499756801
sg7
F4.685592723677884
sg8
F0.3844401861738999
saa(lp1279
(dp1280
g5
F17.5
sg6
F-25.5
sg7
F3.141592653589793
sg8
F0.0
sa(dp1281
g5
F12.129649290187519
sg6
F-31.499392004382045
sg7
F4.699991683941401
sg8
F0.26641134606423694
saa(lp1282
(dp1283
g5
F17.5
sg6
F-25.51667825364546
sg7
F3.141416568375622
sg8
F0.06949264706699222
sa(dp1284
g5
F12.03285620312781
sg6
F-31.5
sg7
F4.709250486286592
sg8
F0.13690069565651908
saa(lp1285
(dp1286
g5
F17.500030845519984
sg6
F-25.57530943123902
sg7
F3.1401861376035405
sg8
F0.17480369127250894
sa(dp1287
g5
F12.03285620312781
sg6
F-31.5
sg7
F4.709250486286592
sg8
F0.13690069565651908
saa(lp1288
(dp1289
g5
F17.50033407295114
sg6
F-25.688076974980447
sg7
F3.1367389918855966
sg8
F0.2950622560477903
sa(dp1290
g5
F12.03285620312781
sg6
F-31.5
sg7
F4.709250486286592
sg8
F0.13690069565651908
saa(lp1291
(dp1292
g5
F17.5016281978744
sg6
F-25.85908147368151
sg7
F3.130185078240876
sg8
F0.41747610776466904
sa(dp1293
g5
F12.03285620312781
sg6
F-31.5
sg7
F4.709250486286592
sg8
F0.13690069565651908
saa(lp1294
(dp1295
g5
F17.50522382594972
sg6
F-26.08749990249592
sg7
F3.120306746398467
sg8
F0.5343842082855919
sa(dp1296
g5
F12.03285620312781
sg6
F-31.5
sg7
F4.709250486286592
sg8
F0.13690069565651908
saa(lp1297
(dp1298
g5
F17.51283822924861
sg6
F-26.369586621275367
sg7
F3.107763750032656
sg8
F0.6414039495808038
sa(dp1299
g5
F12.03285620312781
sg6
F-31.5
sg7
F4.709250486286592
sg8
F0.13690069565651908
saa(lp1300
(dp1301
g5
F17.526124507445125
sg6
F-26.699956440295203
sg7
F3.0940908063764025
sg8
F0.73624817675558
sa(dp1302
g5
F12.03285620312781
sg6
F-31.5
sg7
F4.709250486286592
sg8
F0.13690069565651908
saa(lp1303
(dp1304
g5
F17.546054897824853
sg6
F-27.072431540544954
sg7
F3.0815196522217048
sg8
F0.8179498491250886
sa(dp1305
g5
F12.03285620312781
sg6
F-31.5
sg7
F4.709250486286592
sg8
F0.13690069565651908
saa(lp1306
(dp1307
g5
F17.572340862641656
sg6
F-27.480615006512366
sg7
F3.07269427338321
sg8
F0.8863356280308095
sa(dp1308
g5
F12.03285620312781
sg6
F-31.5
sg7
F4.709250486286592
sg8
F0.13690069565651908
saa(lp1309
(dp1310
g5
F17.603039413898422
sg6
F-27.918257851624986
sg7
F3.0703593606522595
sg8
F0.9416548698138489
sa(dp1311
g5
F12.03285620312781
sg6
F-31.5
sg7
F4.709250486286592
sg8
F0.13690069565651908
saa(lp1312
(dp1313
g5
F17.634422149440486
sg6
F-28.379423508603807
sg7
F3.0770825716487984
sg8
F0.9843106577794613
sa(dp1314
g5
F12.03285620312781
sg6
F-31.5
sg7
F4.709250486286592
sg8
F0.13690069565651908
saa(lp1315
(dp1316
g5
F17.661116857173813
sg6
F-28.858434602314453
sg7
F3.0950328915396867
sg8
F1.0146635965808413
sa(dp1317
g5
F12.03285620312781
sg6
F-31.5
sg7
F4.709250486286592
sg8
F0.13690069565651908
saa(lp1318
(dp1319
g5
F17.67650202129914
sg6
F-29.349607951298854
sg7
F3.125800246082115
sg8
F1.0328935123115128
sa(dp1320
g5
F12.03285620312781
sg6
F-31.5
sg7
F4.709250486286592
sg8
F0.13690069565651908
saa(lp1321
(dp1322
g5
F17.67334327447825
sg6
F-29.846832126753142
sg7
F3.1702194796471606
sg8
F1.0389134109068523
sa(dp1323
g5
F12.03285620312781
sg6
F-31.5
sg7
F4.709250486286592
sg8
F0.13690069565651908
saa(lp1324
(dp1325
g5
F17.64468154295713
sg6
F-30.343105255157518
sg7
F3.228161515028578
sg8
F1.0323347407282277
sa(dp1326
g5
F12.03285620312781
sg6
F-31.5
sg7
F4.709250486286592
sg8
F0.13690069565651908
saa(lp1327
(dp1328
g5
F17.584975978372675
sg6
F-30.830217631070727
sg7
F3.29826747348516
sg8
F1.012487188153349
sa(dp1329
g5
F12.03285620312781
sg6
F-31.5
sg7
F4.709250486286592
sg8
F0.13690069565651908
saa(lp1330
(dp1331
g5
F17.491422280708978
sg6
F-31.298807111372682
sg7
F3.377679398056338
sg8
F0.9784989789165753
sa(dp1332
g5
F12.03285620312781
sg6
F-31.5
sg7
F4.709250486286592
sg8
F0.13690069565651908
saa(lp1333
(dp1334
g5
F17.36518957484441
sg6
F-31.738969515304433
sg7
F3.4619213967242195
sg8
F0.9294393734533445
sa(dp1335
g5
F12.03285620312781
sg6
F-31.5
sg7
F4.709250486286592
sg8
F0.13690069565651908
saa(lp1336
(dp1337
g5
F17.212122379686754
sg6
F-32.14139118757088
sg7
F3.545182758811987
sg8
F0.8645144020365286
sa(dp1338
g5
F12.03285620312781
sg6
F-31.5
sg7
F4.709250486286592
sg8
F0.13690069565651908
saa(lp1339
(dp1340
g5
F17.042434262284562
sg6
F-32.4986099557058
sg7
F3.6211944574998416
sg8
F0.7832901205752717
sa(dp1341
g5
F12.03285620312781
sg6
F-31.5
sg7
F4.709250486286592
sg8
F0.13690069565651908
saa(lp1342
(dp1343
g5
F16.869259811670922
sg6
F-32.80576105320321
sg7
F3.6845567683411256
sg8
F0.6859010863887721
sa(dp1344
g5
F12.03285620312781
sg6
F-31.5
sg7
F4.709250486286592
sg8
F0.13690069565651908
saa(lp1345
(dp1346
g5
F16.70649811981884
sg6
F-33.06036672899654
sg7
F3.7319740702545836
sg8
F0.5731992423427005
sa(dp1347
g5
F12.03285620312781
sg6
F-31.5
sg7
F4.709250486286592
sg8
F0.13690069565651908
saa(lp1348
(dp1349
g5
F16.566713127040003
sg6
F-33.26133722099649
sg7
F3.7628514864447347
sg8
F0.44681616969165405
sa(dp1350
g5
F12.03285620312781
sg6
F-31.5
sg7
F4.709250486286592
sg8
F0.13690069565651908
saa(lp1351
(dp1352
g5
F16.459693635210527
sg6
F-33.407841440929744
sg7
F3.779155764670152
sg8
F0.3091391868117937
sa(dp1353
g5
F12.03285620312781
sg6
F-31.5
sg7
F4.709250486286592
sg8
F0.13690069565651908
saa(lp1354
(dp1355
g5
F16.391874722720193
sg6
F-33.498685252940646
sg7
F3.7848437788841536
sg8
F0.163221440641945
sa(dp1356
g5
F12.03285620312781
sg6
F-31.5
sg7
F4.709250486286592
sg8
F0.13690069565651908
saa(lp1357
(dp1358
g5
F16.366546783018492
sg6
F-33.53245019159073
sg7
F3.785199635278378
sg8
F0.012648011187439944
sa(dp1359
g5
F12.03285620312781
sg6
F-31.5
sg7
F4.709250486286592
sg8
F0.13690069565651908
saa(lp1360
(dp1361
g5
F16.38468857453402
sg6
F-33.50826119156714
sg7
F3.786243269816038
sg8
F-0.13863235144677155
sa(dp1362
g5
F12.03285620312781
sg6
F-31.5
sg7
F4.709250486286592
sg8
F0.13690069565651908
saa(lp1363
(dp1364
g5
F16.446215623261192
sg6
F-33.42686208230335
sg7
F3.7942044542153655
sg8
F-0.2865181489628268
sa(dp1365
g5
F12.03285620312781
sg6
F-31.5
sg7
F4.709250486286592
sg8
F0.13690069565651908
saa(lp1366
(dp1367
g5
F16.551338147140378
sg6
F-33.29167818208244
sg7
F3.8149659827845146
sg8
F-0.4270089783490934
sa(dp1368
g5
F12.03285620312781
sg6
F-31.5
sg7
F4.709250486286592
sg8
F0.13690069565651908
saa(lp1369
(dp1370
g5
F16.70158915803381
sg6
F-33.109644909408296
sg7
F3.853352980150214
sg8
F-0.5564599039350611
sa(dp1371
g5
F12.03285620312781
sg6
F-31.5
sg7
F4.709250486286592
sg8
F0.13690069565651908
saa(lp1372
(dp1373
g5
F16.90001417920173
sg6
F-32.89164199776574
sg7
F3.91219604727832
sg8
F-0.6718064844969756
sa(dp1374
g5
F12.03285620312781
sg6
F-31.5
sg7
F4.709250486286592
sg8
F0.13690069565651908
saa(lp1375
(dp1376
g5
F17.15016267640714
sg6
F-32.65228757856173
sg7
F3.991307004858584
sg8
F-0.7707543224106957
sa(dp1377
g5
F12.03285620312781
sg6
F-31.5
sg7
F4.709250486286592
sg8
F0.13690069565651908
saa(lp1378
(dp1379
g5
F17.454033662268753
sg6
F-32.408721560277904
sg7
F4.08688725965545
sg8
F-0.8519023615364091
sa(dp1380
g5
F12.03285620312781
sg6
F-31.5
sg7
F4.709250486286592
sg8
F0.13690069565651908
saa(lp1381
(dp1382
g5
F17.809902059157555
sg6
F-32.17821450679181
sg7
F4.192076179197013
sg8
F-0.9147614646914872
sa(dp1383
g5
F12.03285620312781
sg6
F-31.5
sg7
F4.709250486286592
sg8
F0.13690069565651908
saa(lp1384
(dp1385
g5
F18.21133377096358
sg6
F-31.975170681373484
sg7
F4.298703171429824
sg8
F-0.9596540405565563
sa(dp1386
g5
F12.03285620312781
sg6
F-31.5
sg7
F4.709250486286592
sg8
F0.13690069565651908
saa(lp1387
(dp1388
g5
F18.64802095389515
sg6
F-31.808749026879163
sg7
F4.399298403380737
sg8
F-0.9875277819087916
sa(dp1389
g5
F12.03285620312781
sg6
F-31.5
sg7
F4.709250486286592
sg8
F0.13690069565651908
saa(lp1390
(dp1391
g5
F19.107841644881372
sg6
F-31.68208222079718
sg7
F4.488421637030763
sg8
F-0.9997540319896739
sa(dp1392
g5
F12.03285620312781
sg6
F-31.5
sg7
F4.709250486286592
sg8
F0.13690069565651908
saa(lp1393
(dp1394
g5
F19.578972798422388
sg6
F-31.593113261179692
sg7
F4.563003790443243
sg8
F-0.9979857219442168
sa(dp1395
g5
F12.03285620312781
sg6
F-31.5
sg7
F4.709250486286592
sg8
F0.13690069565651908
saa(lp1396
(dp1397
g5
F20.050818327839533
sg6
F-31.536379861909637
sg7
F4.62197833751461
sg8
F-0.982195531422676
sa(dp1398
g5
F12.03285620312781
sg6
F-31.5
sg7
F4.709250486286592
sg8
F0.13690069565651908
saa(lp1399
(dp1400
g5
F20.513986803607388
sg6
F-31.504738900555115
sg7
F4.665704517863411
sg8
F-0.9521689250593379
sa(dp1401
g5
F12.03285620312781
sg6
F-31.5
sg7
F4.709250486286592
sg8
F0.13690069565651908
saa(lp1402
(dp1403
g5
F20.96010517099786
sg6
F-31.490724582698277
sg7
F4.695550591188495
sg8
F-0.9075725087869512
sa(dp1404
g5
F12.03285620312781
sg6
F-31.5
sg7
F4.709250486286592
sg8
F0.13690069565651908
saa(lp1405
(dp1406
g5
F21.38141597003255
sg6
F-31.48755763085889
sg7
F4.713581334335534
sg8
F-0.8479368165529175
sa(dp1407
g5
F12.03285620312781
sg6
F-31.5
sg7
F4.709250486286592
sg8
F0.13690069565651908
saa(lp1408
(dp1409
g5
F21.770365905764315
sg6
F-31.4897963092176
sg7
F4.72230306852898
sg8
F-0.7727129762825437
sa(dp1410
g5
F12.03285620312781
sg6
F-31.5
sg7
F4.709250486286592
sg8
F0.13690069565651908
saa(lp1411
(dp1412
g5
F22.119331251729086
sg6
F-31.493648322742956
sg7
F4.724417951198838
sg8
F-0.6813962793058088
sa(dp1413
g5
F12.03285620312781
sg6
F-31.5
sg7
F4.709250486286592
sg8
F0.13690069565651908
saa(lp1414
(dp1415
g5
F22.42053974649636
sg6
F-31.496968001966465
sg7
F4.7225608485755215
sg8
F-0.5737139549354171
sa(dp1416
g5
F12.03285620312781
sg6
F-31.5
sg7
F4.709250486286592
sg8
F0.13690069565651908
saa(lp1417
(dp1418
g5
F22.66619597910953
sg6
F-31.498980613140063
sg7
F4.719029526844725
sg8
F-0.449886906096375
sa(dp1419
g5
F12.03285620312781
sg6
F-31.5
sg7
F4.709250486286592
sg8
F0.13690069565651908
saa(lp1420
(dp1421
g5
F22.84880555346683
sg6
F-31.499818329706162
sg7
F4.7155571707997845
sg8
F-0.31099348948296407
sa(dp1422
g5
F12.03285620312781
sg6
F-31.5
sg7
F4.709250486286592
sg8
F0.13690069565651908
saaa(lp1423
(lp1424
(dp1425
S'acc'
p1426
I0
sS'delta'
p1427
I0
sa(dp1428
g1426
I0
sg1427
I0
saa(lp1429
(dp1430
g1426
I0
sg1427
I0
sa(dp1431
g1426
I0
sg1427
I0
saa(lp1432
(dp1433
g1426
I0
sg1427
I0
sa(dp1434
g1426
I0
sg1427
I0
saa(lp1435
(dp1436
g1426
I0
sg1427
I0
sa(dp1437
g1426
I0
sg1427
I0
saa(lp1438
(dp1439
g1426
I0
sg1427
I0
sa(dp1440
g1426
I0
sg1427
I0
saa(lp1441
(dp1442
g1426
I0
sg1427
I0
sa(dp1443
g1426
I0
sg1427
I0
saa(lp1444
(dp1445
g1426
I0
sg1427
I0
sa(dp1446
g1426
I0
sg1427
I0
saa(lp1447
(dp1448
g1426
I0
sg1427
I0
sa(dp1449
g1426
I0
sg1427
I0
saa(lp1450
(dp1451
g1426
I0
sg1427
I0
sa(dp1452
g1426
I0
sg1427
I0
saa(lp1453
(dp1454
g1426
I0
sg1427
I0
sa(dp1455
g1426
I0
sg1427
I0
saa(lp1456
(dp1457
g1426
I0
sg1427
I0
sa(dp1458
g1426
I0
sg1427
I0
saa(lp1459
(dp1460
g1426
I0
sg1427
I0
sa(dp1461
g1426
I0
sg1427
I0
saa(lp1462
(dp1463
g1426
I0
sg1427
I0
sa(dp1464
g1426
I0
sg1427
I0
saa(lp1465
(dp1466
g1426
I0
sg1427
I0
sa(dp1467
g1426
I0
sg1427
I0
saa(lp1468
(dp1469
g1426
I0
sg1427
I0
sa(dp1470
g1426
I0
sg1427
I0
saa(lp1471
(dp1472
g1426
I0
sg1427
I0
sa(dp1473
g1426
I0
sg1427
I0
saa(lp1474
(dp1475
g1426
I0
sg1427
I0
sa(dp1476
g1426
I0
sg1427
I0
saa(lp1477
(dp1478
g1426
I0
sg1427
I0
sa(dp1479
g1426
I0
sg1427
I0
saa(lp1480
(dp1481
g1426
I0
sg1427
I0
sa(dp1482
g1426
I0
sg1427
I0
saa(lp1483
(dp1484
g1426
I0
sg1427
I0
sa(dp1485
g1426
I0
sg1427
I0
saa(lp1486
(dp1487
g1426
I0
sg1427
I0
sa(dp1488
g1426
I0
sg1427
I0
saa(lp1489
(dp1490
g1426
I0
sg1427
I0
sa(dp1491
g1426
I0
sg1427
I0
saa(lp1492
(dp1493
g1426
I0
sg1427
I0
sa(dp1494
g1426
I0
sg1427
I0
saa(lp1495
(dp1496
g1426
I0
sg1427
I0
sa(dp1497
g1426
I0
sg1427
I0
saa(lp1498
(dp1499
g1426
I0
sg1427
I0
sa(dp1500
g1426
I0
sg1427
I0
saa(lp1501
(dp1502
g1426
I0
sg1427
I0
sa(dp1503
g1426
I0
sg1427
I0
saa(lp1504
(dp1505
g1426
I0
sg1427
I0
sa(dp1506
g1426
I0
sg1427
I0
saa(lp1507
(dp1508
g1426
I0
sg1427
I0
sa(dp1509
g1426
I0
sg1427
I0
saa(lp1510
(dp1511
g1426
I0
sg1427
I0
sa(dp1512
g1426
I0
sg1427
I0
saa(lp1513
(dp1514
g1426
I0
sg1427
I0
sa(dp1515
g1426
I0
sg1427
I0
saa(lp1516
(dp1517
g1426
I0
sg1427
I0
sa(dp1518
g1426
I0
sg1427
I0
saa(lp1519
(dp1520
g1426
I0
sg1427
I0
sa(dp1521
g1426
I0
sg1427
I0
saa(lp1522
(dp1523
g1426
I0
sg1427
I0
sa(dp1524
g1426
I0
sg1427
I0
saa(lp1525
(dp1526
g1426
I0
sg1427
I0
sa(dp1527
g1426
I0
sg1427
I0
saa(lp1528
(dp1529
g1426
I0
sg1427
I0
sa(dp1530
g1426
I0
sg1427
I0
saa(lp1531
(dp1532
g1426
I0
sg1427
I0
sa(dp1533
g1426
I0
sg1427
I0
saa(lp1534
(dp1535
g1426
I0
sg1427
I0
sa(dp1536
g1426
I0
sg1427
I0
saa(lp1537
(dp1538
g1426
I0
sg1427
I0
sa(dp1539
g1426
I0
sg1427
I0
saa(lp1540
(dp1541
g1426
I0
sg1427
I0
sa(dp1542
g1426
I0
sg1427
I0
saa(lp1543
(dp1544
g1426
I0
sg1427
I0
sa(dp1545
g1426
I0
sg1427
I0
saa(lp1546
(dp1547
g1426
I0
sg1427
I0
sa(dp1548
g1426
I0
sg1427
I0
saa(lp1549
(dp1550
g1426
I0
sg1427
I0
sa(dp1551
g1426
I0
sg1427
I0
saa(lp1552
(dp1553
g1426
I0
sg1427
I0
sa(dp1554
g1426
I0
sg1427
I0
saa(lp1555
(dp1556
g1426
I0
sg1427
I0
sa(dp1557
g1426
I0
sg1427
I0
saa(lp1558
(dp1559
g1426
I0
sg1427
I0
sa(dp1560
g1426
I0
sg1427
I0
saa(lp1561
(dp1562
g1426
I0
sg1427
I0
sa(dp1563
g1426
I0
sg1427
I0
saa(lp1564
(dp1565
g1426
I0
sg1427
I0
sa(dp1566
g1426
I0
sg1427
I0
saa(lp1567
(dp1568
g1426
I0
sg1427
I0
sa(dp1569
g1426
I0
sg1427
I0
saa(lp1570
(dp1571
g1426
I0
sg1427
I0
sa(dp1572
g1426
I0
sg1427
I0
saa(lp1573
(dp1574
g1426
I0
sg1427
I0
sa(dp1575
g1426
I0
sg1427
I0
saa(lp1576
(dp1577
g1426
I0
sg1427
I0
sa(dp1578
g1426
I0
sg1427
I0
saa(lp1579
(dp1580
g1426
I0
sg1427
I0
sa(dp1581
g1426
I0
sg1427
I0
saa(lp1582
(dp1583
g1426
I0
sg1427
I0
sa(dp1584
g1426
I0
sg1427
I0
saa(lp1585
(dp1586
g1426
I0
sg1427
I0
sa(dp1587
g1426
I0
sg1427
I0
saa(lp1588
(dp1589
g1426
I0
sg1427
I0
sa(dp1590
g1426
I0
sg1427
I0
saa(lp1591
(dp1592
g1426
I0
sg1427
I0
sa(dp1593
g1426
I0
sg1427
I0
saa(lp1594
(dp1595
g1426
I0
sg1427
I0
sa(dp1596
g1426
I0
sg1427
I0
saa(lp1597
(dp1598
g1426
I0
sg1427
I0
sa(dp1599
g1426
I0
sg1427
I0
saa(lp1600
(dp1601
g1426
I0
sg1427
I0
sa(dp1602
g1426
I0
sg1427
I0
saa(lp1603
(dp1604
g1426
I0
sg1427
I0
sa(dp1605
g1426
I0
sg1427
I0
saa(lp1606
(dp1607
g1426
I0
sg1427
I0
sa(dp1608
g1426
I0
sg1427
I0
saa(lp1609
(dp1610
g1426
I0
sg1427
I0
sa(dp1611
g1426
I0
sg1427
I0
saa(lp1612
(dp1613
g1426
I0
sg1427
I0
sa(dp1614
g1426
I0
sg1427
I0
saa(lp1615
(dp1616
g1426
I0
sg1427
I0
sa(dp1617
g1426
I0
sg1427
I0
saa(lp1618
(dp1619
g1426
I0
sg1427
I0
sa(dp1620
g1426
I0
sg1427
I0
saa(lp1621
(dp1622
g1426
I0
sg1427
I0
sa(dp1623
g1426
I0
sg1427
I0
saa(lp1624
(dp1625
g1426
I0
sg1427
I0
sa(dp1626
g1426
I0
sg1427
I0
saa(lp1627
(dp1628
g1426
I0
sg1427
I0
sa(dp1629
g1426
I0
sg1427
I0
saa(lp1630
(dp1631
g1426
I0
sg1427
I0
sa(dp1632
g1426
I0
sg1427
I0
saa(lp1633
(dp1634
g1426
I0
sg1427
I0
sa(dp1635
g1426
I0
sg1427
I0
saa(lp1636
(dp1637
g1426
I0
sg1427
I0
sa(dp1638
g1426
I0
sg1427
I0
saa(lp1639
(dp1640
g1426
I0
sg1427
I0
sa(dp1641
g1426
I0
sg1427
I0
saa(lp1642
(dp1643
g1426
I0
sg1427
I0
sa(dp1644
g1426
I0
sg1427
I0
saa(lp1645
(dp1646
g1426
I0
sg1427
I0
sa(dp1647
g1426
I0
sg1427
I0
saa(lp1648
(dp1649
g1426
I0
sg1427
I0
sa(dp1650
g1426
I0
sg1427
I0
saa(lp1651
(dp1652
g1426
I0
sg1427
I0
sa(dp1653
g1426
I0
sg1427
I0
saa(lp1654
(dp1655
g1426
I0
sg1427
I0
sa(dp1656
g1426
I0
sg1427
I0
saa(lp1657
(dp1658
g1426
I0
sg1427
I0
sa(dp1659
g1426
I0
sg1427
I0
saa(lp1660
(dp1661
g1426
I0
sg1427
I0
sa(dp1662
g1426
I0
sg1427
I0
saa(lp1663
(dp1664
g1426
I0
sg1427
I0
sa(dp1665
g1426
I0
sg1427
I0
saa(lp1666
(dp1667
g1426
I0
sg1427
I0
sa(dp1668
g1426
I0
sg1427
I0
saa(lp1669
(dp1670
g1426
I0
sg1427
I0
sa(dp1671
g1426
I0
sg1427
I0
saa(lp1672
(dp1673
g1426
I0
sg1427
I0
sa(dp1674
g1426
I0
sg1427
I0
saa(lp1675
(dp1676
g1426
I0
sg1427
I0
sa(dp1677
g1426
I0
sg1427
I0
saa(lp1678
(dp1679
g1426
I0
sg1427
I0
sa(dp1680
g1426
I0
sg1427
I0
saa(lp1681
(dp1682
g1426
I0
sg1427
I0
sa(dp1683
g1426
I0
sg1427
I0
saa(lp1684
(dp1685
g1426
I0
sg1427
I0
sa(dp1686
g1426
I0
sg1427
I0
saa(lp1687
(dp1688
g1426
I0
sg1427
I0
sa(dp1689
g1426
I0
sg1427
I0
saa(lp1690
(dp1691
g1426
I0
sg1427
I0
sa(dp1692
g1426
I0
sg1427
I0
saa(lp1693
(dp1694
g1426
I0
sg1427
I0
sa(dp1695
g1426
I0
sg1427
I0
saa(lp1696
(dp1697
g1426
I0
sg1427
I0
sa(dp1698
g1426
I0
sg1427
I0
saa(lp1699
(dp1700
g1426
I0
sg1427
I0
sa(dp1701
g1426
I0
sg1427
I0
saa(lp1702
(dp1703
g1426
I0
sg1427
I0
sa(dp1704
g1426
I0
sg1427
I0
saa(lp1705
(dp1706
g1426
I0
sg1427
I0
sa(dp1707
g1426
I0
sg1427
I0
saa(lp1708
(dp1709
g1426
I0
sg1427
I0
sa(dp1710
g1426
I0
sg1427
I0
saa(lp1711
(dp1712
g1426
I0
sg1427
I0
sa(dp1713
g1426
I0
sg1427
I0
saa(lp1714
(dp1715
g1426
I0
sg1427
I0
sa(dp1716
g1426
I0
sg1427
I0
saa(lp1717
(dp1718
g1426
I0
sg1427
I0
sa(dp1719
g1426
I0
sg1427
I0
saa(lp1720
(dp1721
g1426
I0
sg1427
I0
sa(dp1722
g1426
I0
sg1427
I0
saa(lp1723
(dp1724
g1426
I0
sg1427
I0
sa(dp1725
g1426
I0
sg1427
I0
saa(lp1726
(dp1727
g1426
I0
sg1427
I0
sa(dp1728
g1426
I0
sg1427
I0
saa(lp1729
(dp1730
g1426
I0
sg1427
I0
sa(dp1731
g1426
I0
sg1427
I0
saa(lp1732
(dp1733
g1426
I0
sg1427
I0
sa(dp1734
g1426
I0
sg1427
I0
saa(lp1735
(dp1736
g1426
I0
sg1427
I0
sa(dp1737
g1426
I0
sg1427
I0
saa(lp1738
(dp1739
g1426
I0
sg1427
I0
sa(dp1740
g1426
I0
sg1427
I0
saa(lp1741
(dp1742
g1426
I0
sg1427
I0
sa(dp1743
g1426
I0
sg1427
I0
saa(lp1744
(dp1745
g1426
I0
sg1427
I0
sa(dp1746
g1426
I0
sg1427
I0
saa(lp1747
(dp1748
g1426
I0
sg1427
I0
sa(dp1749
g1426
I0
sg1427
I0
saa(lp1750
(dp1751
g1426
I0
sg1427
I0
sa(dp1752
g1426
I0
sg1427
I0
saa(lp1753
(dp1754
g1426
I0
sg1427
I0
sa(dp1755
g1426
I0
sg1427
I0
saa(lp1756
(dp1757
g1426
I0
sg1427
I0
sa(dp1758
g1426
I0
sg1427
I0
saa(lp1759
(dp1760
g1426
I0
sg1427
I0
sa(dp1761
g1426
I0
sg1427
I0
saa(lp1762
(dp1763
g1426
I0
sg1427
I0
sa(dp1764
g1426
I0
sg1427
I0
saa(lp1765
(dp1766
g1426
I0
sg1427
I0
sa(dp1767
g1426
I0
sg1427
I0
saa(lp1768
(dp1769
g1426
I0
sg1427
I0
sa(dp1770
g1426
I0
sg1427
I0
saa(lp1771
(dp1772
g1426
I0
sg1427
I0
sa(dp1773
g1426
I0
sg1427
I0
saa(lp1774
(dp1775
g1426
I0
sg1427
I0
sa(dp1776
g1426
I0
sg1427
I0
saa(lp1777
(dp1778
g1426
I0
sg1427
I0
sa(dp1779
g1426
I0
sg1427
I0
saa(lp1780
(dp1781
g1426
I0
sg1427
I0
sa(dp1782
g1426
I0
sg1427
I0
saa(lp1783
(dp1784
g1426
I0
sg1427
I0
sa(dp1785
g1426
I0
sg1427
I0
saa(lp1786
(dp1787
g1426
I0
sg1427
I0
sa(dp1788
g1426
I0
sg1427
I0
saa(lp1789
(dp1790
g1426
I0
sg1427
I0
sa(dp1791
g1426
I0
sg1427
I0
saa(lp1792
(dp1793
g1426
I0
sg1427
I0
sa(dp1794
g1426
I0
sg1427
I0
saa(lp1795
(dp1796
g1426
I0
sg1427
I0
sa(dp1797
g1426
I0
sg1427
I0
saa(lp1798
(dp1799
g1426
I0
sg1427
I0
sa(dp1800
g1426
I0
sg1427
I0
saa(lp1801
(dp1802
g1426
I0
sg1427
I0
sa(dp1803
g1426
I0
sg1427
I0
saa(lp1804
(dp1805
g1426
I0
sg1427
I0
sa(dp1806
g1426
I0
sg1427
I0
saa(lp1807
(dp1808
g1426
I0
sg1427
I0
sa(dp1809
g1426
I0
sg1427
I0
saa(lp1810
(dp1811
g1426
I0
sg1427
I0
sa(dp1812
g1426
I0
sg1427
I0
saa(lp1813
(dp1814
g1426
I0
sg1427
I0
sa(dp1815
g1426
I0
sg1427
I0
saa(lp1816
(dp1817
g1426
I0
sg1427
I0
sa(dp1818
g1426
I0
sg1427
I0
saa(lp1819
(dp1820
g1426
I0
sg1427
I0
sa(dp1821
g1426
I0
sg1427
I0
saa(lp1822
(dp1823
g1426
I0
sg1427
I0
sa(dp1824
g1426
I0
sg1427
I0
saa(lp1825
(dp1826
g1426
I0
sg1427
I0
sa(dp1827
g1426
I0
sg1427
I0
saa(lp1828
(dp1829
g1426
I0
sg1427
I0
sa(dp1830
g1426
I0
sg1427
I0
saa(lp1831
(dp1832
g1426
I0
sg1427
I0
sa(dp1833
g1426
I0
sg1427
I0
saa(lp1834
(dp1835
g1426
I0
sg1427
I0
sa(dp1836
g1426
I0
sg1427
I0
saa(lp1837
(dp1838
g1426
I0
sg1427
I0
sa(dp1839
g1426
I0
sg1427
I0
saa(lp1840
(dp1841
g1426
I0
sg1427
I0
sa(dp1842
g1426
I0
sg1427
I0
saa(lp1843
(dp1844
g1426
I0
sg1427
I0
sa(dp1845
g1426
I0
sg1427
I0
saa(lp1846
(dp1847
g1426
I0
sg1427
I0
sa(dp1848
g1426
I0
sg1427
I0
saa(lp1849
(dp1850
g1426
I0
sg1427
I0
sa(dp1851
g1426
I0
sg1427
I0
saa(lp1852
(dp1853
g1426
I0
sg1427
I0
sa(dp1854
g1426
I0
sg1427
I0
saa(lp1855
(dp1856
g1426
I0
sg1427
I0
sa(dp1857
g1426
I0
sg1427
I0
saa(lp1858
(dp1859
g1426
I0
sg1427
I0
sa(dp1860
g1426
I0
sg1427
I0
saa(lp1861
(dp1862
g1426
I0
sg1427
I0
sa(dp1863
g1426
I0
sg1427
I0
saa(lp1864
(dp1865
g1426
I0
sg1427
I0
sa(dp1866
g1426
I0
sg1427
I0
saa(lp1867
(dp1868
g1426
I0
sg1427
I0
sa(dp1869
g1426
I0
sg1427
I0
saa(lp1870
(dp1871
g1426
I0
sg1427
I0
sa(dp1872
g1426
I0
sg1427
I0
saa(lp1873
(dp1874
g1426
I0
sg1427
I0
sa(dp1875
g1426
I0
sg1427
I0
saa(lp1876
(dp1877
g1426
I0
sg1427
I0
sa(dp1878
g1426
I0
sg1427
I0
saa(lp1879
(dp1880
g1426
I0
sg1427
I0
sa(dp1881
g1426
I0
sg1427
I0
saa(lp1882
(dp1883
g1426
I0
sg1427
I0
sa(dp1884
g1426
I0
sg1427
I0
saa(lp1885
(dp1886
g1426
I0
sg1427
I0
sa(dp1887
g1426
I0
sg1427
I0
saa(lp1888
(dp1889
g1426
I0
sg1427
I0
sa(dp1890
g1426
I0
sg1427
I0
saa(lp1891
(dp1892
g1426
I0
sg1427
I0
sa(dp1893
g1426
I0
sg1427
I0
saa(lp1894
(dp1895
g1426
I0
sg1427
I0
sa(dp1896
g1426
I0
sg1427
I0
saa(lp1897
(dp1898
g1426
I0
sg1427
I0
sa(dp1899
g1426
I0
sg1427
I0
saa(lp1900
(dp1901
g1426
I0
sg1427
I0
sa(dp1902
g1426
I0
sg1427
I0
saa(lp1903
(dp1904
g1426
I0
sg1427
I0
sa(dp1905
g1426
I0
sg1427
I0
saa(lp1906
(dp1907
g1426
I0
sg1427
I0
sa(dp1908
g1426
I0
sg1427
I0
saa(lp1909
(dp1910
g1426
I0
sg1427
I0
sa(dp1911
g1426
I0
sg1427
I0
saa(lp1912
(dp1913
g1426
I0
sg1427
I0
sa(dp1914
g1426
I0
sg1427
I0
saa(lp1915
(dp1916
g1426
I0
sg1427
I0
sa(dp1917
g1426
I0
sg1427
I0
saa(lp1918
(dp1919
g1426
I0
sg1427
I0
sa(dp1920
g1426
I0
sg1427
I0
saa(lp1921
(dp1922
g1426
I0
sg1427
I0
sa(dp1923
g1426
I0
sg1427
I0
saa(lp1924
(dp1925
g1426
I0
sg1427
I0
sa(dp1926
g1426
I0
sg1427
I0
saa(lp1927
(dp1928
g1426
I0
sg1427
I0
sa(dp1929
g1426
I0
sg1427
I0
saa(lp1930
(dp1931
g1426
I0
sg1427
I0
sa(dp1932
g1426
I0
sg1427
I0
saa(lp1933
(dp1934
g1426
I0
sg1427
I0
sa(dp1935
g1426
I0
sg1427
I0
saa(lp1936
(dp1937
g1426
I0
sg1427
I0
sa(dp1938
g1426
I0
sg1427
I0
saa(lp1939
(dp1940
g1426
I0
sg1427
I0
sa(dp1941
g1426
I0
sg1427
I0
saa(lp1942
(dp1943
g1426
I0
sg1427
I0
sa(dp1944
g1426
I0
sg1427
I0
saa(lp1945
(dp1946
g1426
I0
sg1427
I0
sa(dp1947
g1426
I0
sg1427
I0
saa(lp1948
(dp1949
g1426
I0
sg1427
I0
sa(dp1950
g1426
I0
sg1427
I0
saa(lp1951
(dp1952
g1426
I0
sg1427
I0
sa(dp1953
g1426
I0
sg1427
I0
saa(lp1954
(dp1955
g1426
I0
sg1427
I0
sa(dp1956
g1426
I0
sg1427
I0
saa(lp1957
(dp1958
g1426
I0
sg1427
I0
sa(dp1959
g1426
I0
sg1427
I0
saa(lp1960
(dp1961
g1426
I0
sg1427
I0
sa(dp1962
g1426
I0
sg1427
I0
saa(lp1963
(dp1964
g1426
I0
sg1427
I0
sa(dp1965
g1426
I0
sg1427
I0
saa(lp1966
(dp1967
g1426
I0
sg1427
I0
sa(dp1968
g1426
I0
sg1427
I0
saa(lp1969
(dp1970
g1426
I0
sg1427
I0
sa(dp1971
g1426
I0
sg1427
I0
saa(lp1972
(dp1973
g1426
I0
sg1427
I0
sa(dp1974
g1426
I0
sg1427
I0
saa(lp1975
(dp1976
g1426
I0
sg1427
I0
sa(dp1977
g1426
I0
sg1427
I0
saa(lp1978
(dp1979
g1426
I0
sg1427
I0
sa(dp1980
g1426
I0
sg1427
I0
saa(lp1981
(dp1982
g1426
I0
sg1427
I0
sa(dp1983
g1426
I0
sg1427
I0
saa(lp1984
(dp1985
g1426
I0
sg1427
I0
sa(dp1986
g1426
I0
sg1427
I0
saa(lp1987
(dp1988
g1426
I0
sg1427
I0
sa(dp1989
g1426
I0
sg1427
I0
saa(lp1990
(dp1991
g1426
I0
sg1427
I0
sa(dp1992
g1426
I0
sg1427
I0
saa(lp1993
(dp1994
g1426
I0
sg1427
I0
sa(dp1995
g1426
I0
sg1427
I0
saa(lp1996
(dp1997
g1426
I0
sg1427
I0
sa(dp1998
g1426
I0
sg1427
I0
saa(lp1999
(dp2000
g1426
I0
sg1427
I0
sa(dp2001
g1426
I0
sg1427
I0
saa(lp2002
(dp2003
g1426
I0
sg1427
I0
sa(dp2004
g1426
I0
sg1427
I0
saa(lp2005
(dp2006
g1426
I0
sg1427
I0
sa(dp2007
g1426
I0
sg1427
I0
saa(lp2008
(dp2009
g1426
I0
sg1427
I0
sa(dp2010
g1426
I0
sg1427
I0
saa(lp2011
(dp2012
g1426
I0
sg1427
I0
sa(dp2013
g1426
I0
sg1427
I0
saa(lp2014
(dp2015
g1426
I0
sg1427
I0
sa(dp2016
g1426
I0
sg1427
I0
saa(lp2017
(dp2018
g1426
I0
sg1427
I0
sa(dp2019
g1426
I0
sg1427
I0
saa(lp2020
(dp2021
g1426
I0
sg1427
I0
sa(dp2022
g1426
I0
sg1427
I0
saa(lp2023
(dp2024
g1426
I0
sg1427
I0
sa(dp2025
g1426
I0
sg1427
I0
saa(lp2026
(dp2027
g1426
I0
sg1427
I0
sa(dp2028
g1426
I0
sg1427
I0
saa(lp2029
(dp2030
g1426
I0
sg1427
I0
sa(dp2031
g1426
I0
sg1427
I0
saa(lp2032
(dp2033
g1426
I0
sg1427
I0
sa(dp2034
g1426
I0
sg1427
I0
saa(lp2035
(dp2036
g1426
I0
sg1427
I0
sa(dp2037
g1426
I0
sg1427
I0
saa(lp2038
(dp2039
g1426
I0
sg1427
I0
sa(dp2040
g1426
I0
sg1427
I0
saa(lp2041
(dp2042
g1426
I0
sg1427
I0
sa(dp2043
g1426
I0
sg1427
I0
saa(lp2044
(dp2045
g1426
I0
sg1427
I0
sa(dp2046
g1426
I0
sg1427
I0
saa(lp2047
(dp2048
g1426
I0
sg1427
I0
sa(dp2049
g1426
I0
sg1427
I0
saa(lp2050
(dp2051
g1426
I0
sg1427
I0
sa(dp2052
g1426
I0
sg1427
I0
saa(lp2053
(dp2054
g1426
I0
sg1427
I0
sa(dp2055
g1426
I0
sg1427
I0
saa(lp2056
(dp2057
g1426
I0
sg1427
I0
sa(dp2058
g1426
I0
sg1427
I0
saa(lp2059
(dp2060
g1426
I0
sg1427
I0
sa(dp2061
g1426
I0
sg1427
I0
saa(lp2062
(dp2063
g1426
I0
sg1427
I0
sa(dp2064
g1426
I0
sg1427
I0
saa(lp2065
(dp2066
g1426
I0
sg1427
I0
sa(dp2067
g1426
I0
sg1427
I0
saa(lp2068
(dp2069
g1426
I0
sg1427
I0
sa(dp2070
g1426
I0
sg1427
I0
saa(lp2071
(dp2072
g1426
I0
sg1427
I0
sa(dp2073
g1426
I0
sg1427
I0
saa(lp2074
(dp2075
g1426
I0
sg1427
I0
sa(dp2076
g1426
I0
sg1427
I0
saa(lp2077
(dp2078
g1426
I0
sg1427
I0
sa(dp2079
g1426
I0
sg1427
I0
saa(lp2080
(dp2081
g1426
I0
sg1427
I0
sa(dp2082
g1426
I0
sg1427
I0
saa(lp2083
(dp2084
g1426
I0
sg1427
I0
sa(dp2085
g1426
I0
sg1427
I0
saa(lp2086
(dp2087
g1426
I0
sg1427
I0
sa(dp2088
g1426
I0
sg1427
I0
saa(lp2089
(dp2090
g1426
I0
sg1427
I0
sa(dp2091
g1426
I0
sg1427
I0
saa(lp2092
(dp2093
g1426
I0
sg1427
I0
sa(dp2094
g1426
I0
sg1427
I0
saa(lp2095
(dp2096
g1426
I0
sg1427
I0
sa(dp2097
g1426
I0
sg1427
I0
saa(lp2098
(dp2099
g1426
I0
sg1427
I0
sa(dp2100
g1426
I0
sg1427
I0
saa(lp2101
(dp2102
g1426
I0
sg1427
I0
sa(dp2103
g1426
I0
sg1427
I0
saa(lp2104
(dp2105
g1426
I0
sg1427
I0
sa(dp2106
g1426
I0
sg1427
I0
saa(lp2107
(dp2108
g1426
I0
sg1427
I0
sa(dp2109
g1426
I0
sg1427
I0
saa(lp2110
(dp2111
g1426
I0
sg1427
I0
sa(dp2112
g1426
I0
sg1427
I0
saa(lp2113
(dp2114
g1426
I0
sg1427
I0
sa(dp2115
g1426
I0
sg1427
I0
saa(lp2116
(dp2117
g1426
I0
sg1427
I0
sa(dp2118
g1426
I0
sg1427
I0
saa(lp2119
(dp2120
g1426
I0
sg1427
I0
sa(dp2121
g1426
I0
sg1427
I0
saa(lp2122
(dp2123
g1426
I0
sg1427
I0
sa(dp2124
g1426
I0
sg1427
I0
saa(lp2125
(dp2126
g1426
I0
sg1427
I0
sa(dp2127
g1426
I0
sg1427
I0
saa(lp2128
(dp2129
g1426
I0
sg1427
I0
sa(dp2130
g1426
I0
sg1427
I0
saa(lp2131
(dp2132
g1426
I0
sg1427
I0
sa(dp2133
g1426
I0
sg1427
I0
saa(lp2134
(dp2135
g1426
I0
sg1427
I0
sa(dp2136
g1426
I0
sg1427
I0
saa(lp2137
(dp2138
g1426
I0
sg1427
I0
sa(dp2139
g1426
I0
sg1427
I0
saa(lp2140
(dp2141
g1426
I0
sg1427
I0
sa(dp2142
g1426
I0
sg1427
I0
saa(lp2143
(dp2144
g1426
I0
sg1427
I0
sa(dp2145
g1426
I0
sg1427
I0
saa(lp2146
(dp2147
g1426
I0
sg1427
I0
sa(dp2148
g1426
I0
sg1427
I0
saa(lp2149
(dp2150
g1426
I0
sg1427
I0
sa(dp2151
g1426
I0
sg1427
I0
saa(lp2152
(dp2153
g1426
I0
sg1427
I0
sa(dp2154
g1426
I0
sg1427
I0
saa(lp2155
(dp2156
g1426
I0
sg1427
I0
sa(dp2157
g1426
I0
sg1427
I0
saa(lp2158
(dp2159
g1426
I0
sg1427
I0
sa(dp2160
g1426
I0
sg1427
I0
saa(lp2161
(dp2162
g1426
I0
sg1427
I0
sa(dp2163
g1426
I0
sg1427
I0
saa(lp2164
(dp2165
g1426
I0
sg1427
I0
sa(dp2166
g1426
I0
sg1427
I0
saa(lp2167
(dp2168
g1426
I0
sg1427
I0
sa(dp2169
g1426
I0
sg1427
I0
saa(lp2170
(dp2171
g1426
I0
sg1427
I0
sa(dp2172
g1426
I0
sg1427
I0
saa(lp2173
(dp2174
g1426
I0
sg1427
I0
sa(dp2175
g1426
I0
sg1427
I0
saa(lp2176
(dp2177
g1426
I0
sg1427
I0
sa(dp2178
g1426
I0
sg1427
I0
saa(lp2179
(dp2180
g1426
I0
sg1427
I0
sa(dp2181
g1426
I0
sg1427
I0
saa(lp2182
(dp2183
g1426
I0
sg1427
I0
sa(dp2184
g1426
I0
sg1427
I0
saa(lp2185
(dp2186
g1426
I0
sg1427
I0
sa(dp2187
g1426
I0
sg1427
I0
saa(lp2188
(dp2189
g1426
I0
sg1427
I0
sa(dp2190
g1426
I0
sg1427
I0
saa(lp2191
(dp2192
g1426
I0
sg1427
I0
sa(dp2193
g1426
I0
sg1427
I0
saa(lp2194
(dp2195
g1426
I0
sg1427
I0
sa(dp2196
g1426
I0
sg1427
I0
saa(lp2197
(dp2198
g1426
I0
sg1427
I0
sa(dp2199
g1426
I0
sg1427
I0
saa(lp2200
(dp2201
g1426
I0
sg1427
I0
sa(dp2202
g1426
I0
sg1427
I0
saa(lp2203
(dp2204
g1426
I0
sg1427
I0
sa(dp2205
g1426
I0
sg1427
I0
saa(lp2206
(dp2207
g1426
I0
sg1427
I0
sa(dp2208
g1426
I0
sg1427
I0
saa(lp2209
(dp2210
g1426
I0
sg1427
I0
sa(dp2211
g1426
I0
sg1427
I0
saa(lp2212
(dp2213
g1426
I0
sg1427
I0
sa(dp2214
g1426
I0
sg1427
I0
saa(lp2215
(dp2216
g1426
I0
sg1427
I0
sa(dp2217
g1426
I0
sg1427
I0
saa(lp2218
(dp2219
g1426
I0
sg1427
I0
sa(dp2220
g1426
I0
sg1427
I0
saa(lp2221
(dp2222
g1426
I0
sg1427
I0
sa(dp2223
g1426
I0
sg1427
I0
saa(lp2224
(dp2225
g1426
I0
sg1427
I0
sa(dp2226
g1426
I0
sg1427
I0
saa(lp2227
(dp2228
g1426
I0
sg1427
I0
sa(dp2229
g1426
I0
sg1427
I0
saa(lp2230
(dp2231
g1426
I0
sg1427
I0
sa(dp2232
g1426
I0
sg1427
I0
saa(lp2233
(dp2234
g1426
I0
sg1427
I0
sa(dp2235
g1426
I0
sg1427
I0
saa(lp2236
(dp2237
g1426
I0
sg1427
I0
sa(dp2238
g1426
I0
sg1427
I0
saa(lp2239
(dp2240
g1426
I0
sg1427
I0
sa(dp2241
g1426
I0
sg1427
I0
saa(lp2242
(dp2243
g1426
I0
sg1427
I0
sa(dp2244
g1426
I0
sg1427
I0
saa(lp2245
(dp2246
g1426
I0
sg1427
I0
sa(dp2247
g1426
I0
sg1427
I0
saa(lp2248
(dp2249
g1426
I0
sg1427
I0
sa(dp2250
g1426
I0
sg1427
I0
saa(lp2251
(dp2252
g1426
I0
sg1427
I0
sa(dp2253
g1426
I0
sg1427
I0
saa(lp2254
(dp2255
g1426
I0
sg1427
I0
sa(dp2256
g1426
I0
sg1427
I0
saa(lp2257
(dp2258
g1426
I0
sg1427
I0
sa(dp2259
g1426
I0
sg1427
I0
saa(lp2260
(dp2261
g1426
I0
sg1427
I0
sa(dp2262
g1426
I0
sg1427
I0
saa(lp2263
(dp2264
g1426
I0
sg1427
I0
sa(dp2265
g1426
I0
sg1427
I0
saa(lp2266
(dp2267
g1426
I0
sg1427
I0
sa(dp2268
g1426
I0
sg1427
I0
saa(lp2269
(dp2270
g1426
I0
sg1427
I0
sa(dp2271
g1426
I0
sg1427
I0
saa(lp2272
(dp2273
g1426
I0
sg1427
I0
sa(dp2274
g1426
I0
sg1427
I0
saa(lp2275
(dp2276
g1426
I0
sg1427
I0
sa(dp2277
g1426
I0
sg1427
I0
saa(lp2278
(dp2279
g1426
I0
sg1427
I0
sa(dp2280
g1426
I0
sg1427
I0
saa(lp2281
(dp2282
g1426
I0
sg1427
I0
sa(dp2283
g1426
I0
sg1427
I0
saa(lp2284
(dp2285
g1426
I0
sg1427
I0
sa(dp2286
g1426
I0
sg1427
I0
saa(lp2287
(dp2288
g1426
I0
sg1427
I0
sa(dp2289
g1426
I0
sg1427
I0
saa(lp2290
(dp2291
g1426
I0
sg1427
I0
sa(dp2292
g1426
I0
sg1427
I0
saa(lp2293
(dp2294
g1426
I0
sg1427
I0
sa(dp2295
g1426
I0
sg1427
I0
saa(lp2296
(dp2297
g1426
I0
sg1427
I0
sa(dp2298
g1426
I0
sg1427
I0
saa(lp2299
(dp2300
g1426
I0
sg1427
I0
sa(dp2301
g1426
I0
sg1427
I0
saa(lp2302
(dp2303
g1426
I0
sg1427
I0
sa(dp2304
g1426
I0
sg1427
I0
saa(lp2305
(dp2306
g1426
I0
sg1427
I0
sa(dp2307
g1426
I0
sg1427
I0
saa(lp2308
(dp2309
g1426
I0
sg1427
I0
sa(dp2310
g1426
I0
sg1427
I0
saa(lp2311
(dp2312
g1426
I0
sg1427
I0
sa(dp2313
g1426
I0
sg1427
I0
saa(lp2314
(dp2315
g1426
I0
sg1427
I0
sa(dp2316
g1426
I0
sg1427
I0
saa(lp2317
(dp2318
g1426
I0
sg1427
I0
sa(dp2319
g1426
I0
sg1427
I0
saa(lp2320
(dp2321
g1426
I0
sg1427
I0
sa(dp2322
g1426
I0
sg1427
I0
saa(lp2323
(dp2324
g1426
I0
sg1427
I0
sa(dp2325
g1426
I0
sg1427
I0
saa(lp2326
(dp2327
g1426
I0
sg1427
I0
sa(dp2328
g1426
I0
sg1427
I0
saa(lp2329
(dp2330
g1426
I0
sg1427
I0
sa(dp2331
g1426
I0
sg1427
I0
saa(lp2332
(dp2333
g1426
I0
sg1427
I0
sa(dp2334
g1426
I0
sg1427
I0
saa(lp2335
(dp2336
g1426
I0
sg1427
I0
sa(dp2337
g1426
I0
sg1427
I0
saa(lp2338
(dp2339
g1426
I0
sg1427
I0
sa(dp2340
g1426
I0
sg1427
I0
saa(lp2341
(dp2342
g1426
I0
sg1427
I0
sa(dp2343
g1426
I0
sg1427
I0
saa(lp2344
(dp2345
g1426
I0
sg1427
I0
sa(dp2346
g1426
I0
sg1427
I0
saa(lp2347
(dp2348
g1426
I0
sg1427
I0
sa(dp2349
g1426
I0
sg1427
I0
saa(lp2350
(dp2351
g1426
I0
sg1427
I0
sa(dp2352
g1426
I0
sg1427
I0
saa(lp2353
(dp2354
g1426
I0
sg1427
I0
sa(dp2355
g1426
I0
sg1427
I0
saa(lp2356
(dp2357
g1426
I0
sg1427
I0
sa(dp2358
g1426
I0
sg1427
I0
saa(lp2359
(dp2360
g1426
I0
sg1427
I0
sa(dp2361
g1426
I0
sg1427
I0
saa(lp2362
(dp2363
g1426
I0
sg1427
I0
sa(dp2364
g1426
I0
sg1427
I0
saa(lp2365
(dp2366
g1426
I0
sg1427
I0
sa(dp2367
g1426
I0
sg1427
I0
saa(lp2368
(dp2369
g1426
I0
sg1427
I0
sa(dp2370
g1426
I0
sg1427
I0
saa(lp2371
(dp2372
g1426
I0
sg1427
I0
sa(dp2373
g1426
I0
sg1427
I0
saa(lp2374
(dp2375
g1426
I0
sg1427
I0
sa(dp2376
g1426
I0
sg1427
I0
saa(lp2377
(dp2378
g1426
I0
sg1427
I0
sa(dp2379
g1426
I0
sg1427
I0
saa(lp2380
(dp2381
g1426
I0
sg1427
I0
sa(dp2382
g1426
I0
sg1427
I0
saa(lp2383
(dp2384
g1426
I0
sg1427
I0
sa(dp2385
g1426
I0
sg1427
I0
saa(lp2386
(dp2387
g1426
I0
sg1427
I0
sa(dp2388
g1426
I0
sg1427
I0
saa(lp2389
(dp2390
g1426
I0
sg1427
I0
sa(dp2391
g1426
I0
sg1427
I0
saa(lp2392
(dp2393
g1426
I0
sg1427
I0
sa(dp2394
g1426
I0
sg1427
I0
saa(lp2395
(dp2396
g1426
I0
sg1427
I0
sa(dp2397
g1426
I0
sg1427
I0
saa(lp2398
(dp2399
g1426
I0
sg1427
I0
sa(dp2400
g1426
I0
sg1427
I0
saa(lp2401
(dp2402
g1426
I0
sg1427
I0
sa(dp2403
g1426
I0
sg1427
I0
saa(lp2404
(dp2405
g1426
I0
sg1427
I0
sa(dp2406
g1426
I0
sg1427
I0
saa(lp2407
(dp2408
g1426
I0
sg1427
I0
sa(dp2409
g1426
I0
sg1427
I0
saa(lp2410
(dp2411
g1426
I0
sg1427
I0
sa(dp2412
g1426
I0
sg1427
I0
saa(lp2413
(dp2414
g1426
I0
sg1427
I0
sa(dp2415
g1426
I0
sg1427
I0
saa(lp2416
(dp2417
g1426
I0
sg1427
I0
sa(dp2418
g1426
I0
sg1427
I0
saa(lp2419
(dp2420
g1426
I0
sg1427
I0
sa(dp2421
g1426
I0
sg1427
I0
saa(lp2422
(dp2423
g1426
I0
sg1427
I0
sa(dp2424
g1426
I0
sg1427
I0
saa(lp2425
(dp2426
g1426
I0
sg1427
I0
sa(dp2427
g1426
I0
sg1427
I0
saa(lp2428
(dp2429
g1426
I0
sg1427
I0
sa(dp2430
g1426
I0
sg1427
I0
saa(lp2431
(dp2432
g1426
I0
sg1427
I0
sa(dp2433
g1426
I0
sg1427
I0
saa(lp2434
(dp2435
g1426
I0
sg1427
I0
sa(dp2436
g1426
I0
sg1427
I0
saa(lp2437
(dp2438
g1426
I0
sg1427
I0
sa(dp2439
g1426
I0
sg1427
I0
saa(lp2440
(dp2441
g1426
I0
sg1427
I0
sa(dp2442
g1426
I0
sg1427
I0
saa(lp2443
(dp2444
g1426
I0
sg1427
I0
sa(dp2445
g1426
I0
sg1427
I0
saa(lp2446
(dp2447
g1426
I0
sg1427
I0
sa(dp2448
g1426
I0
sg1427
I0
saa(lp2449
(dp2450
g1426
I0
sg1427
I0
sa(dp2451
g1426
I0
sg1427
I0
saa(lp2452
(dp2453
g1426
I0
sg1427
I0
sa(dp2454
g1426
I0
sg1427
I0
saa(lp2455
(dp2456
g1426
I0
sg1427
I0
sa(dp2457
g1426
I0
sg1427
I0
saa(lp2458
(dp2459
g1426
I0
sg1427
I0
sa(dp2460
g1426
I0
sg1427
I0
saa(lp2461
(dp2462
g1426
I0
sg1427
I0
sa(dp2463
g1426
I0
sg1427
I0
saa(lp2464
(dp2465
g1426
I0
sg1427
I0
sa(dp2466
g1426
I0
sg1427
I0
saa(lp2467
(dp2468
g1426
I0
sg1427
I0
sa(dp2469
g1426
I0
sg1427
I0
saa(lp2470
(dp2471
g1426
I0
sg1427
I0
sa(dp2472
g1426
I0
sg1427
I0
saa(lp2473
(dp2474
g1426
I0
sg1427
I0
sa(dp2475
g1426
I0
sg1427
I0
saa(lp2476
(dp2477
g1426
I0
sg1427
I0
sa(dp2478
g1426
I0
sg1427
I0
saa(lp2479
(dp2480
g1426
I0
sg1427
I0
sa(dp2481
g1426
I0
sg1427
I0
saa(lp2482
(dp2483
g1426
I0
sg1427
I0
sa(dp2484
g1426
I0
sg1427
I0
saa(lp2485
(dp2486
g1426
I0
sg1427
I0
sa(dp2487
g1426
I0
sg1427
I0
saa(lp2488
(dp2489
g1426
I0
sg1427
I0
sa(dp2490
g1426
I0
sg1427
I0
saa(lp2491
(dp2492
g1426
I0
sg1427
I0
sa(dp2493
g1426
I0
sg1427
I0
saa(lp2494
(dp2495
g1426
I0
sg1427
I0
sa(dp2496
g1426
I0
sg1427
I0
saa(lp2497
(dp2498
g1426
I0
sg1427
I0
sa(dp2499
g1426
I0
sg1427
I0
saa(lp2500
(dp2501
g1426
I0
sg1427
I0
sa(dp2502
g1426
I0
sg1427
I0
saa(lp2503
(dp2504
g1426
I0
sg1427
I0
sa(dp2505
g1426
I0
sg1427
I0
saa(lp2506
(dp2507
g1426
I0
sg1427
I0
sa(dp2508
g1426
I0
sg1427
I0
saa(lp2509
(dp2510
g1426
I0
sg1427
I0
sa(dp2511
g1426
F0.13861911115573683
sg1427
F-0.04712602418977021
saa(lp2512
(dp2513
g1426
I0
sg1427
I0
sa(dp2514
g1426
F0.21147281630713027
sg1427
F-0.09411485531765486
saa(lp2515
(dp2516
g1426
I0
sg1427
I0
sa(dp2517
g1426
F0.24298820896190362
sg1427
F-0.13897626980153616
saa(lp2518
(dp2519
g1426
I0
sg1427
I0
sa(dp2520
g1426
F0.24866453948493697
sg1427
F-0.17884499983557686
saa(lp2521
(dp2522
g1426
I0
sg1427
I0
sa(dp2523
g1426
F0.2384566023356076
sg1427
F-0.21066640726095792
saa(lp2524
(dp2525
g1426
I0
sg1427
I0
sa(dp2526
g1426
F0.21885269606111468
sg1427
F-0.2317053498510034
saa(lp2527
(dp2528
g1426
I0
sg1427
I0
sa(dp2529
g1426
F0.1941344367598119
sg1427
F-0.23992028529287437
saa(lp2530
(dp2531
g1426
I0
sg1427
I0
sa(dp2532
g1426
F0.16712864817110665
sg1427
F-0.23419897269076542
saa(lp2533
(dp2534
g1426
I0
sg1427
I0
sa(dp2535
g1426
F0.1396525184565719
sg1427
F-0.2144380321988421
saa(lp2536
(dp2537
g1426
I0
sg1427
I0
sa(dp2538
g1426
F0.11278276650606915
sg1427
F-0.18147121068046157
saa(lp2539
(dp2540
g1426
I0
sg1427
I0
sa(dp2541
g1426
F0.08703114162718971
sg1427
F-0.1368920102194322
saa(lp2542
(dp2543
g1426
I0
sg1427
I0
sa(dp2544
g1426
F0.062474357864655876
sg1427
F-0.08284309897901133
saa(lp2545
(dp2546
g1426
I0
sg1427
I0
sa(dp2547
g1426
F0.03886360925357407
sg1427
F-0.021839733169893887
saa(lp2548
(dp2549
g1426
I0
sg1427
I0
sa(dp2550
g1426
F0.015725486315711943
sg1427
F0.04333492668547573
saa(lp2551
(dp2552
g1426
I0
sg1427
I0
sa(dp2553
g1426
F-0.007539984704709496
sg1427
F0.10965945043611428
saa(lp2554
(dp2555
g1426
I0
sg1427
I0
sa(dp2556
g1426
F-0.03156051989101737
sg1427
F0.17385402220332954
saa(lp2557
(dp2558
g1426
I0
sg1427
I0
sa(dp2559
g1426
F-0.0568894933376454
sg1427
F0.23235726795861747
saa(lp2560
(dp2561
g1426
I0
sg1427
I0
sa(dp2562
g1426
F-0.08390093362789847
sg1427
F0.281363359107888
saa(lp2563
(dp2564
g1426
I0
sg1427
I0
sa(dp2565
g1426
F-0.11268788045389555
sg1427
F0.3169894373888767
saa(lp2566
(dp2567
g1426
I0
sg1427
I0
sa(dp2568
g1426
F-0.1429788197787867
sg1427
F0.33562036864034517
saa(lp2569
(dp2570
g1426
I0
sg1427
I0
sa(dp2571
g1426
F-0.17409395537417563
sg1427
F0.33440853399388526
saa(lp2572
(dp2573
g1426
I0
sg1427
I0
sa(dp2574
g1426
F-0.2049615475954536
sg1427
F0.3117927420267719
saa(lp2575
(dp2576
g1426
I0
sg1427
I0
sa(dp2577
g1426
F-0.23419963273901773
sg1427
F0.2678278918467375
saa(lp2578
(dp2579
g1426
I0
sg1427
I0
sa(dp2580
g1426
F-0.2602459035103154
sg1427
F0.20418391235304983
saa(lp2581
(dp2582
g1426
I0
sg1427
I0
sa(dp2583
g1426
F-0.281502993445949
sg1427
F0.1238487252466186
saa(lp2584
(dp2585
g1426
I0
sg1427
I0
sa(dp2586
g1426
F-0.29646775365751754
sg1427
F0.030715104270560928
saa(lp2587
(dp2588
g1426
I0
sg1427
I0
sa(dp2589
g1426
F-0.30383018614289065
sg1427
F-0.07076507738128723
saa(lp2590
(dp2591
g1426
I0
sg1427
I0
sa(dp2592
g1426
F-0.30254863874434074
sg1427
F-0.1757785966821361
saa(lp2593
(dp2594
g1426
I0
sg1427
I0
sa(dp2595
g1426
F-0.2919171567295789
sg1427
F-0.279222296362186
saa(lp2596
(dp2597
g1426
I0
sg1427
I0
sa(dp2598
g1426
F-0.27163673955393625
sg1427
F-0.3757513816480172
saa(lp2599
(dp2600
g1426
I0
sg1427
I0
sa(dp2601
g1426
F-0.24189038505287835
sg1427
F-0.45996188974696106
saa(lp2602
(dp2603
g1426
I0
sg1427
I0
sa(dp2604
g1426
F-0.20340930909667937
sg1427
F-0.5268797901551674
saa(lp2605
(dp2606
g1426
I0
sg1427
I0
sa(dp2607
g1426
F-0.15746941983366539
sg1427
F-0.5728284006462663
saa(lp2608
(dp2609
g1426
I0
sg1427
I0
sa(dp2610
g1426
F-0.10572892176894526
sg1427
F-0.5964696438240684
saa(lp2611
(dp2612
g1426
I0
sg1427
I0
sa(dp2613
g1426
F-0.049999644933226374
sg1427
F-0.5998420487336723
saa(lp2614
(dp2615
g1426
I0
sg1427
I0
sa(dp2616
g1426
F0.007862946964552324
sg1427
F-0.5998578186870583
saa(lp2617
(dp2618
g1426
I0
sg1427
I0
sa(dp2619
g1426
F0.06572993167759297
sg1427
F-0.5999765744305123
saa(lp2620
(dp2621
g1426
I0
sg1427
I0
sa(dp2622
g1426
F0.122768942194249
sg1427
F-0.5999762005455084
saa(lp2623
(dp2624
g1426
I0
sg1427
I0
sa(dp2625
g1426
F0.1778440646692636
sg1427
F-0.5999737908677801
saa(lp2626
(dp2627
g1426
I0
sg1427
I0
sa(dp2628
g1426
F0.2285629844671297
sg1427
F-0.5983501677314029
saa(lp2629
(dp2630
g1426
I0
sg1427
I0
sa(dp2631
g1426
F0.27076177816275027
sg1427
F-0.5270702331699818
saa(lp2632
(dp2633
g1426
I0
sg1427
I0
sa(dp2634
g1426
F0.29993526260679076
sg1427
F-0.4052312085159688
saa(lp2635
(dp2636
g1426
I0
sg1427
I0
sa(dp2637
g1426
F0.31395205667983855
sg1427
F-0.2531773360128684
saa(lp2638
(dp2639
g1426
I0
sg1427
I0
sa(dp2640
g1426
F0.31444243825706547
sg1427
F-0.08734797686004953
saa(lp2641
(dp2642
g1426
I0
sg1427
I0
sa(dp2643
g1426
F0.3077262876231951
sg1427
F0.07919210698797673
saa(lp2644
(dp2645
g1426
I0
sg1427
I0
sa(dp2646
g1426
F0.29467905559279717
sg1427
F0.2356795688151744
saa(lp2647
(dp2648
g1426
I0
sg1427
I0
sa(dp2649
g1426
F0.27053400335703853
sg1427
F0.3704548231251194
saa(lp2650
(dp2651
g1426
I0
sg1427
I0
sa(dp2652
g1426
F0.23487894999829398
sg1427
F0.46918993990192853
saa(lp2653
(dp2654
g1426
I0
sg1427
I0
sa(dp2655
g1426
F0.1908072722283204
sg1427
F0.5152640271007108
saa(lp2656
(dp2657
g1426
I0
sg1427
I0
sa(dp2658
g1426
F0.1436634046252946
sg1427
F0.49337463214974814
saa(lp2659
(dp2660
g1426
I0
sg1427
I0
sa(dp2661
g1426
F0.09886743257453647
sg1427
F0.394835156224255
saa(lp2662
(dp2663
g1426
I0
sg1427
I0
sa(dp2664
g1426
F0.06212876958577398
sg1427
F0.21516333969503612
saa(lp2665
(dp2666
g1426
I0
sg1427
I0
sa(dp2667
g1426
F0.03252503199615452
sg1427
F0.11293161611979993
saa(lp2668
(dp2669
g1426
I0
sg1427
I0
sa(dp2670
g1426
F0.005297734612358649
sg1427
F0.06709728135811968
saa(lp2671
(dp2672
g1426
I0
sg1427
I0
sa(dp2673
g1426
F-0.021236704332578665
sg1427
F0.05801826394666332
saa(lp2674
(dp2675
g1426
I0
sg1427
I0
sa(dp2676
g1426
F-0.04780449815437282
sg1427
F0.06661887847377214
saa(lp2677
(dp2678
g1426
I0
sg1427
I0
sa(dp2679
g1426
F-0.07484216152652007
sg1427
F0.07491255032367027
saa(lp2680
(dp2681
g1426
I0
sg1427
I0
sa(dp2682
g1426
F-0.10253574249324528
sg1427
F0.06969452502168717
saa(lp2683
(dp2684
g1426
I0
sg1427
I0
sa(dp2685
g1426
F-0.1308058363309732
sg1427
F0.09217592739930036
saa(lp2686
(dp2687
g1426
I0
sg1427
I0
sa(dp2688
g1426
F-0.15954264916280095
sg1427
F0.13549289080482843
saa(lp2689
(dp2690
g1426
I0
sg1427
I0
sa(dp2691
g1426
F-0.188721079845588
sg1427
F0.18225066832900222
saa(lp2692
(dp2693
g1426
I0
sg1427
I0
sa(dp2694
g1426
F-0.21795062248813182
sg1427
F0.220432346190087
saa(lp2695
(dp2696
g1426
I0
sg1427
I0
sa(dp2697
g1426
F-0.24589314619966843
sg1427
F0.2439303378751972
saa(lp2698
(dp2699
g1426
F0.14477618877360637
sg1427
F-0.028498269318367183
sa(dp2700
g1426
F-0.26981355798744244
sg1427
F0.25274229587756425
saa(lp2701
(dp2702
g1426
F0.21939776738027475
sg1427
F-0.05660152548495773
sa(dp2703
g1426
F-0.2852094686402734
sg1427
F0.25240913713376706
saa(lp2704
(dp2705
g1426
F0.25053840097305513
sg1427
F-0.08234826899870339
sa(dp2706
g1426
F-0.2852094686402734
sg1427
F0.25240913713376706
saa(lp2707
(dp2708
g1426
F0.25502857716129546
sg1427
F-0.10311018827626074
sa(dp2709
g1426
F-0.2852094686402734
sg1427
F0.25240913713376706
saa(lp2710
(dp2711
g1426
F0.2435582747893366
sg1427
F-0.11622531118300496
sa(dp2712
g1426
F-0.2852094686402734
sg1427
F0.25240913713376706
saa(lp2713
(dp2714
g1426
F0.2229575490673381
sg1427
F-0.11944064287157537
sa(dp2715
g1426
F-0.2852094686402734
sg1427
F0.25240913713376706
saa(lp2716
(dp2717
g1426
F0.19759192255700192
sg1427
F-0.1111935122469664
sa(dp2718
g1426
F-0.2852094686402734
sg1427
F0.25240913713376706
saa(lp2719
(dp2720
g1426
F0.17021163016980023
sg1427
F-0.09074578020846337
sa(dp2721
g1426
F-0.2852094686402734
sg1427
F0.25240913713376706
saa(lp2722
(dp2723
g1426
F0.14247021597465354
sg1427
F-0.05819055199084466
sa(dp2724
g1426
F-0.2852094686402734
sg1427
F0.25240913713376706
saa(lp2725
(dp2726
g1426
F0.11524829358526738
sg1427
F-0.014368746234581536
sa(dp2727
g1426
F-0.2852094686402734
sg1427
F0.25240913713376706
saa(lp2728
(dp2729
g1426
F0.08886612715792903
sg1427
F0.03925158139218384
sa(dp2730
g1426
F-0.2852094686402734
sg1427
F0.25240913713376706
saa(lp2731
(dp2732
g1426
F0.06323521959821223
sg1427
F0.10068067828473533
sa(dp2733
g1426
F-0.2852094686402734
sg1427
F0.25240913713376706
saa(lp2734
(dp2735
g1426
F0.037978949321161186
sg1427
F0.16746329114682565
sa(dp2736
g1426
F-0.2852094686402734
sg1427
F0.25240913713376706
saa(lp2737
(dp2738
g1426
F0.012541441608874769
sg1427
F0.2366774903287729
sa(dp2739
g1426
F-0.2852094686402734
sg1427
F0.25240913713376706
saa(lp2740
(dp2741
g1426
F-0.01370554779330369
sg1427
F0.30489903416113057
sa(dp2742
g1426
F-0.2852094686402734
sg1427
F0.25240913713376706
saa(lp2743
(dp2744
g1426
F-0.04134902237217492
sg1427
F0.3681197604653947
sa(dp2745
g1426
F-0.2852094686402734
sg1427
F0.25240913713376706
saa(lp2746
(dp2747
g1426
F-0.07080869133962249
sg1427
F0.4217838899720162
sa(dp2748
g1426
F-0.2852094686402734
sg1427
F0.25240913713376706
saa(lp2749
(dp2750
g1426
F-0.10220739893324624
sg1427
F0.46102449962300734
sa(dp2751
g1426
F-0.2852094686402734
sg1427
F0.25240913713376706
saa(lp2752
(dp2753
g1426
F-0.13526020830521168
sg1427
F0.481199814651998
sa(dp2754
g1426
F-0.2852094686402734
sg1427
F0.25240913713376706
saa(lp2755
(dp2756
g1426
F-0.16921706687182667
sg1427
F0.47869362692250544
sa(dp2757
g1426
F-0.2852094686402734
sg1427
F0.25240913713376706
saa(lp2758
(dp2759
g1426
F-0.2028935979985275
sg1427
F0.451723138895337
sa(dp2760
g1426
F-0.2852094686402734
sg1427
F0.25240913713376706
saa(lp2761
(dp2762
g1426
F-0.2347952501078016
sg1427
F0.40074427608673197
sa(dp2763
g1426
F-0.2852094686402734
sg1427
F0.25240913713376706
saa(lp2764
(dp2765
g1426
F-0.26329777834304396
sg1427
F0.3282352120409674
sa(dp2766
g1426
F-0.2852094686402734
sg1427
F0.25240913713376706
saa(lp2767
(dp2768
g1426
F-0.2868267320998736
sg1427
F0.23803710231005973
sa(dp2769
g1426
F-0.2852094686402734
sg1427
F0.25240913713376706
saa(lp2770
(dp2771
g1426
F-0.30399497006553655
sg1427
F0.1346490317520355
sa(dp2772
g1426
F-0.2852094686402734
sg1427
F0.25240913713376706
saa(lp2773
(dp2774
g1426
F-0.31369429957071066
sg1427
F0.022759437226771897
sa(dp2775
g1426
F-0.2852094686402734
sg1427
F0.25240913713376706
saa(lp2776
(dp2777
g1426
F-0.31516707540808586
sg1427
F-0.09292474699946082
sa(dp2778
g1426
F-0.2852094686402734
sg1427
F0.25240913713376706
saa(lp2779
(dp2780
g1426
F-0.3080950725258713
sg1427
F-0.20762653651161694
sa(dp2781
g1426
F-0.2852094686402734
sg1427
F0.25240913713376706
saa(lp2782
(dp2783
g1426
F-0.2926889058719951
sg1427
F-0.316348119778292
sa(dp2784
g1426
F-0.2852094686402734
sg1427
F0.25240913713376706
saa(lp2785
(dp2786
g1426
F-0.26968913159236896
sg1427
F-0.41376288363838953
sa(dp2787
g1426
F-0.2852094686402734
sg1427
F0.25240913713376706
saa(lp2788
(dp2789
g1426
F-0.24030511178719624
sg1427
F-0.4943260230651133
sa(dp2790
g1426
F-0.2852094686402734
sg1427
F0.25240913713376706
saa(lp2791
(dp2792
g1426
F-0.20614110219066936
sg1427
F-0.5527943191322375
sa(dp2793
g1426
F-0.2852094686402734
sg1427
F0.25240913713376706
saa(lp2794
(dp2795
g1426
F-0.16905822884753086
sg1427
F-0.5852266257707038
sa(dp2796
g1426
F-0.2852094686402734
sg1427
F0.25240913713376706
saa(lp2797
(dp2798
g1426
F-0.13095632082839098
sg1427
F-0.5901931632813084
sa(dp2799
g1426
F-0.2852094686402734
sg1427
F0.25240913713376706
saa(lp2800
(dp2801
g1426
F-0.09352609682156993
sg1427
F-0.569285342258651
sa(dp2802
g1426
F-0.2852094686402734
sg1427
F0.25240913713376706
saa(lp2803
(dp2804
g1426
F-0.058070230595010236
sg1427
F-0.5264785884870716
sa(dp2805
g1426
F-0.2852094686402734
sg1427
F0.25240913713376706
saa(lp2806
(dp2807
g1426
F-0.025471326311642038
sg1427
F-0.46726182234680014
sa(dp2808
g1426
F-0.2852094686402734
sg1427
F0.25240913713376706
saa(lp2809
(dp2810
g1426
F0.0036839752082630547
sg1427
F-0.3976269729297422
sa(dp2811
g1426
F-0.2852094686402734
sg1427
F0.25240913713376706
saa(lp2812
(dp2813
g1426
F0.032896194060847705
sg1427
F-0.3232962089133209
sa(dp2814
g1426
F-0.2852094686402734
sg1427
F0.25240913713376706
saa(lp2815
(dp2816
g1426
F0.0625553611002715
sg1427
F-0.24902651681410734
sa(dp2817
g1426
F-0.2852094686402734
sg1427
F0.25240913713376706
saa(lp2818
(dp2819
g1426
F0.09290909834896922
sg1427
F-0.17862127292421787
sa(dp2820
g1426
F-0.2852094686402734
sg1427
F0.25240913713376706
saa(lp2821
(dp2822
g1426
F0.12424088879786033
sg1427
F-0.11503786617135738
sa(dp2823
g1426
F-0.2852094686402734
sg1427
F0.25240913713376706
saa(lp2824
(dp2825
g1426
F0.15671616147763812
sg1427
F-0.06046943650747863
sa(dp2826
g1426
F-0.2852094686402734
sg1427
F0.25240913713376706
saa(lp2827
(dp2828
g1426
F0.19024290939645996
sg1427
F-0.016360724538276947
sa(dp2829
g1426
F-0.2852094686402734
sg1427
F0.25240913713376706
saa(lp2830
(dp2831
g1426
F0.2243379289552699
sg1427
F0.016644316712077514
sa(dp2832
g1426
F-0.2852094686402734
sg1427
F0.25240913713376706
saa(lp2833
(dp2834
g1426
F0.2579727345933099
sg1427
F0.0387918748543147
sa(dp2835
g1426
F-0.2852094686402734
sg1427
F0.25240913713376706
saa(lp2836
(dp2837
g1426
F0.28936096625660845
sg1427
F0.051295439924731484
sa(dp2838
g1426
F-0.2852094686402734
sg1427
F0.25240913713376706
saa(lp2839
(dp2840
g1426
F0.31562849864310816
sg1427
F0.056346953783899374
sa(dp2841
g1426
F-0.2852094686402734
sg1427
F0.25240913713376706
saaa.