(lp0
(lp1
I2
aI11
aI17
aI21
aI31
aI34
aI43
aI51
aI52
aI57
aI63
aI68
aa(lp2
S'U'
p3
aS'L'
p4
ag4
ag4
ag3
ag3
ag3
ag3
ag3
ag4
ag4
ag3
aa(lp5
S'R'
p6
ag6
aS'F'
p7
ag7
ag7
ag7
ag7
ag7
ag7
ag6
ag7
ag7
aa(lp8
F4.5
aF4.5
aF1.5
aF1.5
aF-1.5
aF-1.5
aF-4.5
aF-4.5
aF-7.5
aF-7.5
aF-10.5
aF-10.5
aa(lp9
g3
ag4
ag4
ag3
ag3
ag4
ag3
ag4
ag3
ag4
ag4
ag3
aa.